(dp0
S'BioID_0869'
p1
(lp2
I216
aI125
aI158
aI125
asS'BioID_0239'
p3
(lp4
I245
aI119
aI198
aI115
asS'BioID_0238'
p5
(lp6
I246
aI122
aI200
aI118
asS'BioID_0549'
p7
(lp8
I226
aI112
aI170
aI111
asS'BioID_0548'
p9
(lp10
I231
aI113
aI175
aI112
asS'BioID_0547'
p11
(lp12
I228
aI111
aI171
aI110
asS'BioID_0546'
p13
(lp14
I215
aI113
aI160
aI112
asS'BioID_0233'
p15
(lp16
I242
aI123
aI194
aI122
asS'BioID_0544'
p17
(lp18
I216
aI106
aI160
aI105
asS'BioID_0543'
p19
(lp20
I214
aI105
aI160
aI105
asS'BioID_0542'
p21
(lp22
I220
aI107
aI165
aI107
asS'BioID_0541'
p23
(lp24
I210
aI109
aI153
aI109
asS'BioID_0540'
p25
(lp26
I232
aI105
aI176
aI105
asS'BioID_0789'
p27
(lp28
I184
aI97
aI139
aI98
asS'BioID_0788'
p29
(lp30
I181
aI102
aI139
aI103
asS'BioID_0781'
p31
(lp32
I183
aI104
aI139
aI104
asS'BioID_0780'
p33
(lp34
I180
aI102
aI136
aI104
asS'BioID_0783'
p35
(lp36
I184
aI98
aI140
aI99
asS'BioID_0782'
p37
(lp38
I185
aI104
aI140
aI105
asS'BioID_0785'
p39
(lp40
I184
aI105
aI139
aI106
asS'BioID_0784'
p41
(lp42
I184
aI100
aI140
aI101
asS'BioID_0787'
p43
(lp44
I179
aI101
aI136
aI103
asS'BioID_0786'
p45
(lp46
I184
aI102
aI141
aI104
asS'BioID_0433'
p47
(lp48
I184
aI99
aI125
aI96
asS'BioID_0432'
p49
(lp50
I179
aI102
aI122
aI99
asS'BioID_0431'
p51
(lp52
I183
aI98
aI125
aI95
asS'BioID_0430'
p53
(lp54
I179
aI96
aI123
aI93
asS'BioID_0437'
p55
(lp56
I191
aI103
aI131
aI100
asS'BioID_0436'
p57
(lp58
I198
aI96
aI138
aI93
asS'BioID_0435'
p59
(lp60
I187
aI95
aI129
aI93
asS'BioID_0434'
p61
(lp62
I185
aI96
aI127
aI93
asS'BioID_0439'
p63
(lp64
I175
aI108
aI118
aI105
asS'BioID_0438'
p65
(lp66
I188
aI99
aI129
aI96
asS'BioID_0947'
p67
(lp68
I171
aI109
aI114
aI125
asS'BioID_0112'
p69
(lp70
I236
aI114
aI171
aI116
asS'BioID_0231'
p71
(lp72
I243
aI120
aI196
aI117
asS'BioID_0113'
p73
(lp74
I229
aI120
aI163
aI121
asS'BioID_0230'
p75
(lp76
I243
aI121
aI196
aI118
asS'BioID_1052'
p77
(lp78
I215
aI95
aI167
aI95
asS'BioID_0545'
p79
(lp80
I219
aI108
aI162
aI109
asS'BioID_0232'
p81
(lp82
I241
aI124
aI194
aI122
asS'BioID_0235'
p83
(lp84
I247
aI123
aI200
aI119
asS'BioID_0234'
p85
(lp86
I250
aI122
aI202
aI118
asS'BioID_0118'
p87
(lp88
I226
aI114
aI159
aI114
asS'BioID_0237'
p89
(lp90
I240
aI122
aI194
aI119
asS'BioID_0119'
p91
(lp92
I230
aI105
aI166
aI103
asS'BioID_1053'
p93
(lp94
I212
aI92
aI165
aI93
asS'BioID_0236'
p95
(lp96
I244
aI123
aI197
aI120
asS'BioID_1050'
p97
(lp98
I216
aI93
aI169
aI93
asS'BioID_0341'
p99
(lp100
I181
aI142
aI137
aI139
asS'BioID_0340'
p101
(lp102
I195
aI138
aI148
aI136
asS'BioID_1207'
p103
(lp104
I223
aI66
aI175
aI66
asS'BioID_1206'
p105
(lp106
I222
aI66
aI176
aI68
asS'BioID_1205'
p107
(lp108
I218
aI64
aI173
aI65
asS'BioID_1204'
p109
(lp110
I223
aI62
aI174
aI64
asS'BioID_1203'
p111
(lp112
I224
aI64
aI178
aI64
asS'BioID_1202'
p113
(lp114
I224
aI66
aI176
aI64
asS'BioID_1201'
p115
(lp116
I217
aI60
aI169
aI62
asS'BioID_1200'
p117
(lp118
I215
aI63
aI169
aI65
asS'BioID_0343'
p119
(lp120
I200
aI116
aI158
aI117
asS'BioID_0948'
p121
(lp122
I239
aI105
aI173
aI101
asS'BioID_1209'
p123
(lp124
I219
aI65
aI174
aI68
asS'BioID_1208'
p125
(lp126
I226
aI64
aI177
aI66
asS'BioID_1379'
p127
(lp128
I254
aI113
aI193
aI114
asS'BioID_1378'
p129
(lp130
I247
aI113
aI186
aI114
asS'BioID_1373'
p131
(lp132
I236
aI107
aI175
aI108
asS'BioID_1372'
p133
(lp134
I232
aI102
aI172
aI102
asS'BioID_1371'
p135
(lp136
I225
aI74
aI160
aI75
asS'BioID_1370'
p137
(lp138
I229
aI98
aI174
aI100
asS'BioID_1377'
p139
(lp140
I241
aI111
aI177
aI113
asS'BioID_1376'
p141
(lp142
I242
aI115
aI180
aI116
asS'BioID_1375'
p143
(lp144
I236
aI107
aI174
aI108
asS'BioID_1374'
p145
(lp146
I239
aI110
aI177
aI111
asS'BioID_0936'
p147
(lp148
I225
aI100
aI164
aI97
asS'BioID_0937'
p149
(lp150
I228
aI90
aI169
aI89
asS'BioID_0934'
p151
(lp152
I230
aI104
aI170
aI104
asS'BioID_0935'
p153
(lp154
I230
aI123
aI167
aI124
asS'BioID_0932'
p155
(lp156
I250
aI107
aI189
aI102
asS'BioID_0933'
p157
(lp158
I249
aI113
aI187
aI111
asS'BioID_1159'
p159
(lp160
I228
aI78
aI171
aI78
asS'BioID_0931'
p161
(lp162
I240
aI104
aI181
aI101
asS'BioID_1157'
p163
(lp164
I233
aI69
aI175
aI69
asS'BioID_1156'
p165
(lp166
I226
aI96
aI170
aI97
asS'BioID_1155'
p167
(lp168
I237
aI77
aI182
aI78
asS'BioID_1154'
p169
(lp170
I224
aI84
aI168
aI87
asS'BioID_1153'
p171
(lp172
I229
aI76
aI175
aI76
asS'BioID_1152'
p173
(lp174
I228
aI94
aI171
aI99
asS'BioID_1151'
p175
(lp176
I221
aI93
aI165
aI98
asS'BioID_1150'
p177
(lp178
I226
aI97
aI170
aI100
asS'BioID_0154'
p179
(lp180
I209
aI95
aI160
aI93
asS'BioID_0155'
p181
(lp182
I208
aI102
aI156
aI100
asS'BioID_0156'
p183
(lp184
I209
aI108
aI157
aI105
asS'BioID_0157'
p185
(lp186
I247
aI94
aI200
aI92
asS'BioID_0150'
p187
(lp188
I191
aI101
aI141
aI98
asS'BioID_0151'
p189
(lp190
I206
aI107
aI154
aI106
asS'BioID_0152'
p191
(lp192
I208
aI76
aI166
aI74
asS'BioID_0153'
p193
(lp194
I214
aI94
aI161
aI94
asS'BioID_0158'
p195
(lp196
I249
aI94
aI200
aI93
asS'BioID_0159'
p197
(lp198
I264
aI100
aI217
aI98
asS'BioID_0338'
p199
(lp200
I192
aI128
aI146
aI125
asS'BioID_0339'
p201
(lp202
I190
aI137
aI144
aI136
asS'BioID_0848'
p203
(lp204
I237
aI151
aI178
aI147
asS'BioID_0849'
p205
(lp206
I228
aI160
aI169
aI157
asS'BioID_0842'
p207
(lp208
I230
aI156
aI171
aI153
asS'BioID_0843'
p209
(lp210
I228
aI166
aI168
aI162
asS'BioID_0332'
p211
(lp212
I195
aI127
aI146
aI127
asS'BioID_0333'
p213
(lp214
I190
aI127
aI143
aI129
asS'BioID_0846'
p215
(lp216
I227
aI157
aI165
aI155
asS'BioID_0335'
p217
(lp218
I182
aI128
aI133
aI126
asS'BioID_0844'
p219
(lp220
I235
aI170
aI175
aI167
asS'BioID_0845'
p221
(lp222
I227
aI156
aI167
aI153
asS'BioID_0961'
p223
(lp224
I229
aI106
aI175
aI106
asS'BioID_0744'
p225
(lp226
I207
aI124
aI165
aI123
asS'BioID_0747'
p227
(lp228
I200
aI115
aI157
aI114
asS'BioID_0962'
p229
(lp230
I229
aI107
aI181
aI110
asS'BioID_0965'
p231
(lp232
I217
aI117
aI158
aI117
asS'BioID_0964'
p233
(lp234
I231
aI104
aI186
aI105
asS'BioID_0208'
p235
(lp236
I216
aI96
aI176
aI91
asS'BioID_0967'
p237
(lp238
I241
aI116
aI184
aI115
asS'BioID_0204'
p239
(lp240
I231
aI106
aI167
aI104
asS'BioID_0205'
p241
(lp242
I237
aI94
aI190
aI101
asS'BioID_0206'
p243
(lp244
I248
aI96
aI192
aI95
asS'BioID_0207'
p245
(lp246
I242
aI113
aI177
aI112
asS'BioID_0200'
p247
(lp248
I241
aI114
aI179
aI112
asS'BioID_0201'
p249
(lp250
I245
aI113
aI182
aI110
asS'BioID_0202'
p251
(lp252
I231
aI116
aI169
aI113
asS'BioID_0203'
p253
(lp254
I230
aI112
aI167
aI109
asS'BioID_1049'
p255
(lp256
I188
aI70
aI143
aI68
asS'BioID_1048'
p257
(lp258
I195
aI74
aI148
aI73
asS'BioID_1160'
p259
(lp260
I233
aI85
aI174
aI87
asS'BioID_1161'
p261
(lp262
I233
aI88
aI172
aI89
asS'BioID_1041'
p263
(lp264
I185
aI68
aI141
aI67
asS'BioID_1040'
p265
(lp266
I183
aI73
aI139
aI73
asS'BioID_1515'
p267
(lp268
I232
aI138
aI162
aI135
asS'BioID_0446'
p269
(lp270
I179
aI100
aI119
aI99
asS'BioID_0447'
p271
(lp272
I189
aI109
aI127
aI107
asS'BioID_0444'
p273
(lp274
I199
aI95
aI137
aI92
asS'BioID_0445'
p275
(lp276
I191
aI113
aI131
aI111
asS'BioID_0442'
p277
(lp278
I184
aI108
aI127
aI106
asS'BioID_0443'
p279
(lp280
I192
aI103
aI130
aI100
asS'BioID_0440'
p281
(lp282
I184
aI105
aI125
aI103
asS'BioID_0441'
p283
(lp284
I190
aI112
aI128
aI109
asS'BioID_0068'
p285
(lp286
I236
aI85
aI154
aI84
asS'BioID_0448'
p287
(lp288
I184
aI97
aI122
aI96
asS'BioID_0449'
p289
(lp290
I166
aI129
aI119
aI125
asS'BioID_1168'
p291
(lp292
I236
aI89
aI171
aI91
asS'BioID_1169'
p293
(lp294
I238
aI90
aI172
aI90
asS'BioID_1308'
p295
(lp296
I221
aI97
aI163
aI100
asS'BioID_1309'
p297
(lp298
I222
aI108
aI160
aI109
asS'BioID_1306'
p299
(lp300
I223
aI89
aI162
aI92
asS'BioID_1307'
p301
(lp302
I216
aI93
aI156
aI97
asS'BioID_1304'
p303
(lp304
I218
aI84
aI160
aI87
asS'BioID_1305'
p305
(lp306
I217
aI93
aI156
aI95
asS'BioID_1302'
p307
(lp308
I219
aI93
aI159
aI95
asS'BioID_1303'
p309
(lp310
I221
aI92
aI162
aI94
asS'BioID_1300'
p311
(lp312
I224
aI93
aI162
aI97
asS'BioID_1301'
p313
(lp314
I224
aI94
aI164
aI97
asS'BioID_0351'
p315
(lp316
I200
aI74
aI149
aI68
asS'BioID_0925'
p317
(lp318
I253
aI99
aI196
aI94
asS'BioID_0924'
p319
(lp320
I246
aI97
aI189
aI96
asS'BioID_0927'
p321
(lp322
I239
aI106
aI181
aI106
asS'BioID_0926'
p323
(lp324
I253
aI88
aI198
aI85
asS'BioID_0921'
p325
(lp326
I230
aI105
aI151
aI101
asS'BioID_0920'
p327
(lp328
I244
aI117
aI162
aI111
asS'BioID_0923'
p329
(lp330
I272
aI104
aI225
aI104
asS'BioID_0922'
p331
(lp332
I242
aI87
aI164
aI84
asS'BioID_0143'
p333
(lp334
I247
aI113
aI184
aI108
asS'BioID_0142'
p335
(lp336
I238
aI121
aI174
aI118
asS'BioID_0141'
p337
(lp338
I242
aI123
aI177
aI120
asS'BioID_0140'
p339
(lp340
I243
aI119
aI179
aI116
asS'BioID_0147'
p341
(lp342
I239
aI98
aI198
aI98
asS'BioID_0928'
p343
(lp344
I246
aI105
aI187
aI103
asS'BioID_0145'
p345
(lp346
I237
aI118
aI174
aI116
asS'BioID_0144'
p347
(lp348
I244
aI117
aI181
aI113
asS'BioID_1412'
p349
(lp350
I230
aI93
aI186
aI92
asS'BioID_1413'
p351
(lp352
I232
aI88
aI189
aI87
asS'BioID_1410'
p353
(lp354
I234
aI88
aI190
aI88
asS'BioID_1411'
p355
(lp356
I232
aI92
aI188
aI92
asS'BioID_1416'
p357
(lp358
I233
aI86
aI189
aI85
asS'BioID_1417'
p359
(lp360
I231
aI91
aI188
aI89
asS'BioID_1414'
p361
(lp362
I231
aI88
aI188
aI87
asS'BioID_1415'
p363
(lp364
I232
aI88
aI188
aI88
asS'BioID_1418'
p365
(lp366
I236
aI86
aI192
aI85
asS'BioID_1419'
p367
(lp368
I235
aI87
aI191
aI87
asS'BioID_0591'
p369
(lp370
I164
aI65
aI110
aI63
asS'BioID_1098'
p371
(lp372
I237
aI73
aI186
aI80
asS'BioID_1099'
p373
(lp374
I230
aI73
aI180
aI80
asS'BioID_1096'
p375
(lp376
I251
aI84
aI201
aI89
asS'BioID_1097'
p377
(lp378
I243
aI79
aI193
aI85
asS'BioID_1094'
p379
(lp380
I260
aI119
aI168
aI122
asS'BioID_1095'
p381
(lp382
I279
aI84
aI229
aI85
asS'BioID_1092'
p383
(lp384
I245
aI101
aI154
aI104
asS'BioID_1093'
p385
(lp386
I261
aI146
aI172
aI148
asS'BioID_1090'
p387
(lp388
I251
aI112
aI160
aI114
asS'BioID_1091'
p389
(lp390
I255
aI132
aI162
aI134
asS'BioID_0859'
p391
(lp392
I222
aI146
aI164
aI145
asS'BioID_0858'
p393
(lp394
I206
aI143
aI147
aI143
asS'BioID_0329'
p395
(lp396
I195
aI104
aI151
aI104
asS'BioID_0328'
p397
(lp398
I194
aI110
aI151
aI110
asS'BioID_0851'
p399
(lp400
I215
aI91
aI163
aI90
asS'BioID_0850'
p401
(lp402
I232
aI160
aI173
aI157
asS'BioID_0325'
p403
(lp404
I174
aI110
aI133
aI111
asS'BioID_0852'
p405
(lp406
I210
aI113
aI153
aI112
asS'BioID_0323'
p407
(lp408
I182
aI108
aI139
aI108
asS'BioID_0322'
p409
(lp410
I184
aI113
aI140
aI113
asS'BioID_0321'
p411
(lp412
I235
aI79
aI151
aI78
asS'BioID_0320'
p413
(lp414
I234
aI86
aI149
aI83
asS'BioID_1520'
p415
(lp416
I228
aI137
aI156
aI134
asS'BioID_0593'
p417
(lp418
I174
aI81
aI114
aI78
asS'BioID_0213'
p419
(lp420
I220
aI121
aI153
aI119
asS'BioID_0212'
p421
(lp422
I224
aI108
aI160
aI107
asS'BioID_0211'
p423
(lp424
I232
aI115
aI167
aI112
asS'BioID_0210'
p425
(lp426
I229
aI108
aI164
aI108
asS'BioID_0217'
p427
(lp428
I232
aI127
aI169
aI122
asS'BioID_0216'
p429
(lp430
I225
aI118
aI161
aI116
asS'BioID_0215'
p431
(lp432
I226
aI109
aI163
aI106
asS'BioID_0214'
p433
(lp434
I233
aI106
aI172
aI103
asS'BioID_0219'
p435
(lp436
I238
aI111
aI179
aI110
asS'BioID_0218'
p437
(lp438
I243
aI142
aI178
aI137
asS'BioID_0455'
p439
(lp440
I175
aI138
aI126
aI135
asS'BioID_0454'
p441
(lp442
I179
aI136
aI130
aI133
asS'BioID_0457'
p443
(lp444
I147
aI144
aI103
aI141
asS'BioID_0456'
p445
(lp446
I181
aI137
aI131
aI134
asS'BioID_0451'
p447
(lp448
I183
aI127
aI136
aI125
asS'BioID_0450'
p449
(lp450
I182
aI133
aI135
aI132
asS'BioID_0453'
p451
(lp452
I174
aI139
aI124
aI136
asS'BioID_0452'
p453
(lp454
I185
aI130
aI138
aI128
asS'BioID_0459'
p455
(lp456
I147
aI147
aI102
aI144
asS'BioID_0458'
p457
(lp458
I140
aI143
aI95
aI143
asS'BioID_1038'
p459
(lp460
I194
aI65
aI150
aI60
asS'BioID_0036'
p461
(lp462
I213
aI156
aI159
aI157
asS'BioID_0146'
p463
(lp464
I264
aI11
aI183
aI6
asS'BioID_0821'
p465
(lp466
I215
aI119
aI163
aI115
asS'BioID_1036'
p467
(lp468
I182
aI64
aI138
aI64
asS'BioID_0038'
p469
(lp470
I204
aI123
aI149
aI126
asS'BioID_1319'
p471
(lp472
I229
aI70
aI188
aI72
asS'BioID_1318'
p473
(lp474
I233
aI155
aI168
aI159
asS'BioID_1315'
p475
(lp476
I219
aI109
aI154
aI114
asS'BioID_1314'
p477
(lp478
I216
aI95
aI159
aI98
asS'BioID_1317'
p479
(lp480
I221
aI106
aI161
aI110
asS'BioID_1316'
p481
(lp482
I226
aI110
aI167
aI114
asS'BioID_1311'
p483
(lp484
I218
aI113
aI160
aI113
asS'BioID_1310'
p485
(lp486
I215
aI111
aI152
aI113
asS'BioID_1313'
p487
(lp488
I220
aI109
aI161
aI106
asS'BioID_1312'
p489
(lp490
I226
aI111
aI167
aI111
asS'BioID_0138'
p491
(lp492
I250
aI117
aI186
aI113
asS'BioID_0139'
p493
(lp494
I248
aI118
aI184
aI114
asS'BioID_0136'
p495
(lp496
I242
aI108
aI181
aI105
asS'BioID_0137'
p497
(lp498
I243
aI108
aI181
aI104
asS'BioID_0134'
p499
(lp500
I239
aI109
aI178
aI106
asS'BioID_0135'
p501
(lp502
I238
aI114
aI176
aI110
asS'BioID_0132'
p503
(lp504
I243
aI106
aI184
aI102
asS'BioID_0133'
p505
(lp506
I248
aI87
aI185
aI83
asS'BioID_0130'
p507
(lp508
I238
aI108
aI177
aI104
asS'BioID_0131'
p509
(lp510
I249
aI108
aI189
aI104
asS'BioID_1401'
p511
(lp512
I237
aI82
aI194
aI82
asS'BioID_1400'
p513
(lp514
I239
aI80
aI196
aI81
asS'BioID_1403'
p515
(lp516
I240
aI85
aI196
aI84
asS'BioID_1402'
p517
(lp518
I238
aI86
aI195
aI86
asS'BioID_1405'
p519
(lp520
I243
aI86
aI200
aI79
asS'BioID_1404'
p521
(lp522
I238
aI84
aI194
aI84
asS'BioID_1407'
p523
(lp524
I233
aI89
aI190
aI89
asS'BioID_1406'
p525
(lp526
I231
aI88
aI187
aI87
asS'BioID_1409'
p527
(lp528
I231
aI92
aI187
aI92
asS'BioID_1408'
p529
(lp530
I234
aI91
aI189
aI90
asS'BioID_0827'
p531
(lp532
I218
aI117
aI166
aI114
asS'BioID_1089'
p533
(lp534
I252
aI107
aI160
aI108
asS'BioID_1088'
p535
(lp536
I253
aI100
aI162
aI102
asS'BioID_1085'
p537
(lp538
I253
aI77
aI165
aI78
asS'BioID_1084'
p539
(lp540
I248
aI87
aI156
aI87
asS'BioID_1087'
p541
(lp542
I252
aI96
aI161
aI98
asS'BioID_1086'
p543
(lp544
I261
aI93
aI171
aI93
asS'BioID_1081'
p545
(lp546
I247
aI86
aI159
aI88
asS'BioID_1080'
p547
(lp548
I245
aI86
aI158
aI89
asS'BioID_1083'
p549
(lp550
I249
aI56
aI160
aI58
asS'BioID_1082'
p551
(lp552
I244
aI51
aI155
aI53
asS'BioID_0680'
p553
(lp554
I214
aI111
aI156
aI106
asS'BioID_0681'
p555
(lp556
I212
aI107
aI154
aI104
asS'BioID_0682'
p557
(lp558
I205
aI80
aI159
aI78
asS'BioID_0683'
p559
(lp560
I205
aI94
aI157
aI91
asS'BioID_0868'
p561
(lp562
I211
aI127
aI155
aI128
asS'BioID_0685'
p563
(lp564
I210
aI106
aI146
aI101
asS'BioID_0686'
p565
(lp566
I209
aI112
aI150
aI107
asS'BioID_0687'
p567
(lp568
I211
aI116
aI156
aI111
asS'BioID_0688'
p569
(lp570
I201
aI112
aI144
aI108
asS'BioID_0865'
p571
(lp572
I215
aI125
aI158
aI126
asS'BioID_0866'
p573
(lp574
I214
aI126
aI157
aI123
asS'BioID_0867'
p575
(lp576
I214
aI124
aI158
aI122
asS'BioID_0860'
p577
(lp578
I218
aI132
aI165
aI131
asS'BioID_0861'
p579
(lp580
I336
aI146
aI283
aI132
asS'BioID_0862'
p581
(lp582
I219
aI123
aI161
aI122
asS'BioID_0863'
p583
(lp584
I220
aI118
aI162
aI119
asS'BioID_0042'
p585
(lp586
I216
aI141
aI164
aI144
asS'BioID_0043'
p587
(lp588
I223
aI139
aI169
aI143
asS'BioID_0040'
p589
(lp590
I218
aI141
aI165
aI143
asS'BioID_0041'
p591
(lp592
I214
aI137
aI161
aI141
asS'BioID_0046'
p593
(lp594
I240
aI108
aI187
aI108
asS'BioID_0047'
p595
(lp596
I208
aI93
aI145
aI94
asS'BioID_0044'
p597
(lp598
I214
aI151
aI162
aI153
asS'BioID_0045'
p599
(lp600
I220
aI153
aI168
aI157
asS'BioID_0048'
p601
(lp602
I212
aI71
aI151
aI72
asS'BioID_0049'
p603
(lp604
I206
aI75
aI146
aI78
asS'BioID_0918'
p605
(lp606
I259
aI69
aI176
aI66
asS'BioID_0919'
p607
(lp608
I230
aI63
aI150
aI62
asS'BioID_0910'
p609
(lp610
I229
aI89
aI175
aI89
asS'BioID_0911'
p611
(lp612
I226
aI85
aI172
aI84
asS'BioID_0912'
p613
(lp614
I226
aI87
aI172
aI86
asS'BioID_0913'
p615
(lp616
I242
aI93
aI189
aI92
asS'BioID_0914'
p617
(lp618
I223
aI87
aI169
aI88
asS'BioID_0915'
p619
(lp620
I230
aI89
aI176
aI90
asS'BioID_0916'
p621
(lp622
I225
aI87
aI171
aI87
asS'BioID_0917'
p623
(lp624
I225
aI91
aI171
aI90
asS'BioID_0266'
p625
(lp626
I238
aI122
aI193
aI115
asS'BioID_0267'
p627
(lp628
I192
aI128
aI146
aI123
asS'BioID_0264'
p629
(lp630
I239
aI118
aI194
aI117
asS'BioID_0597'
p631
(lp632
I170
aI60
aI119
aI59
asS'BioID_0590'
p633
(lp634
I166
aI61
aI116
aI60
asS'BioID_0263'
p635
(lp636
I237
aI113
aI192
aI115
asS'BioID_0260'
p637
(lp638
I232
aI132
aI187
aI130
asS'BioID_0261'
p639
(lp640
I220
aI128
aI176
aI133
asS'BioID_0598'
p641
(lp642
I168
aI58
aI119
aI55
asS'BioID_0599'
p643
(lp644
I168
aI67
aI113
aI65
asS'BioID_0268'
p645
(lp646
I180
aI125
aI134
aI123
asS'BioID_0269'
p647
(lp648
I243
aI125
aI198
aI125
asS'BioID_0468'
p649
(lp650
I187
aI133
aI142
aI130
asS'BioID_0469'
p651
(lp652
I181
aI132
aI136
aI132
asS'BioID_0460'
p653
(lp654
I145
aI146
aI99
aI144
asS'BioID_0684'
p655
(lp656
I200
aI95
aI149
aI92
asS'BioID_0462'
p657
(lp658
I187
aI133
aI142
aI129
asS'BioID_0463'
p659
(lp660
I187
aI135
aI141
aI133
asS'BioID_0464'
p661
(lp662
I184
aI130
aI138
aI130
asS'BioID_0465'
p663
(lp664
I185
aI133
aI139
aI131
asS'BioID_0466'
p665
(lp666
I183
aI131
aI138
aI132
asS'BioID_0467'
p667
(lp668
I187
aI133
aI141
aI131
asS'BioID_0668'
p669
(lp670
I211
aI120
aI154
aI116
asS'BioID_0669'
p671
(lp672
I210
aI109
aI150
aI104
asS'BioID_0662'
p673
(lp674
I221
aI120
aI152
aI115
asS'BioID_0663'
p675
(lp676
I211
aI127
aI149
aI123
asS'BioID_0660'
p677
(lp678
I220
aI114
aI167
aI111
asS'BioID_0661'
p679
(lp680
I211
aI105
aI154
aI101
asS'BioID_0666'
p681
(lp682
I208
aI109
aI149
aI104
asS'BioID_0667'
p683
(lp684
I209
aI120
aI148
aI115
asS'BioID_0664'
p685
(lp686
I212
aI133
aI149
aI130
asS'BioID_0665'
p687
(lp688
I208
aI119
aI151
aI115
asS'BioID_0864'
p689
(lp690
I220
aI122
aI163
aI122
asS'BioID_0689'
p691
(lp692
I196
aI110
aI140
aI106
asS'BioID_0694'
p693
(lp694
I212
aI118
aI157
aI114
asS'BioID_0062'
p695
(lp696
I248
aI92
aI168
aI93
asS'BioID_0063'
p697
(lp698
I236
aI91
aI156
aI90
asS'BioID_1320'
p699
(lp700
I230
aI67
aI193
aI67
asS'BioID_1321'
p701
(lp702
I204
aI74
aI168
aI77
asS'BioID_1322'
p703
(lp704
I228
aI77
aI188
aI78
asS'BioID_1323'
p705
(lp706
I223
aI81
aI183
aI83
asS'BioID_1324'
p707
(lp708
I223
aI72
aI185
aI72
asS'BioID_1325'
p709
(lp710
I225
aI77
aI181
aI77
asS'BioID_1326'
p711
(lp712
I224
aI78
aI183
aI80
asS'BioID_1327'
p713
(lp714
I226
aI95
aI181
aI93
asS'BioID_1328'
p715
(lp716
I222
aI64
aI181
aI65
asS'BioID_1329'
p717
(lp718
I231
aI86
aI188
aI87
asS'BioID_1184'
p719
(lp720
I224
aI64
aI179
aI68
asS'BioID_1185'
p721
(lp722
I222
aI73
aI177
aI73
asS'BioID_1186'
p723
(lp724
I233
aI65
aI185
aI69
asS'BioID_1187'
p725
(lp726
I232
aI67
aI184
aI69
asS'BioID_1180'
p727
(lp728
I226
aI62
aI180
aI65
asS'BioID_0128'
p729
(lp730
I237
aI97
aI178
aI94
asS'BioID_1182'
p731
(lp732
I227
aI69
aI182
aI70
asS'BioID_1183'
p733
(lp734
I215
aI51
aI173
aI53
asS'BioID_0125'
p735
(lp736
I238
aI115
aI175
aI111
asS'BioID_0124'
p737
(lp738
I234
aI113
aI170
aI110
asS'BioID_0127'
p739
(lp740
I247
aI114
aI186
aI109
asS'BioID_0126'
p741
(lp742
I234
aI111
aI168
aI107
asS'BioID_1188'
p743
(lp744
I233
aI78
aI185
aI78
asS'BioID_0120'
p745
(lp746
I230
aI113
aI164
aI112
asS'BioID_0123'
p747
(lp748
I233
aI114
aI171
aI113
asS'BioID_0122'
p749
(lp750
I236
aI107
aI175
aI105
asS'BioID_1434'
p751
(lp752
I187
aI91
aI137
aI87
asS'BioID_1435'
p753
(lp754
I184
aI93
aI134
aI91
asS'BioID_1436'
p755
(lp756
I186
aI94
aI136
aI92
asS'BioID_1437'
p757
(lp758
I186
aI92
aI137
aI91
asS'BioID_1430'
p759
(lp760
I185
aI92
aI136
aI89
asS'BioID_1431'
p761
(lp762
I186
aI94
aI136
aI90
asS'BioID_1432'
p763
(lp764
I187
aI93
aI137
aI90
asS'BioID_1433'
p765
(lp766
I185
aI96
aI135
aI94
asS'BioID_1438'
p767
(lp768
I185
aI91
aI136
aI87
asS'BioID_1439'
p769
(lp770
I183
aI87
aI134
aI87
asS'BioID_0873'
p771
(lp772
I213
aI133
aI157
aI133
asS'BioID_0696'
p773
(lp774
I210
aI115
aI154
aI110
asS'BioID_0871'
p775
(lp776
I215
aI129
aI158
aI127
asS'BioID_0870'
p777
(lp778
I212
aI126
aI156
aI126
asS'BioID_0693'
p779
(lp780
I212
aI121
aI155
aI116
asS'BioID_0692'
p781
(lp782
I211
aI116
aI155
aI110
asS'BioID_0691'
p783
(lp784
I190
aI113
aI133
aI110
asS'BioID_0690'
p785
(lp786
I196
aI114
aI138
aI109
asS'BioID_0879'
p787
(lp788
I205
aI104
aI162
aI105
asS'BioID_0878'
p789
(lp790
I205
aI104
aI161
aI104
asS'BioID_0699'
p791
(lp792
I208
aI123
aI152
aI118
asS'BioID_0698'
p793
(lp794
I208
aI122
aI152
aI118
asS'BioID_1508'
p795
(lp796
I184
aI54
aI142
aI63
asS'BioID_1509'
p797
(lp798
I188
aI75
aI143
aI77
asS'BioID_0053'
p799
(lp800
I245
aI54
aI155
aI51
asS'BioID_0052'
p801
(lp802
I246
aI85
aI165
aI80
asS'BioID_0055'
p803
(lp804
I238
aI77
aI152
aI77
asS'BioID_0054'
p805
(lp806
I244
aI48
aI153
aI45
asS'BioID_0057'
p807
(lp808
I223
aI94
aI143
aI97
asS'BioID_0056'
p809
(lp810
I231
aI100
aI148
aI99
asS'BioID_0059'
p811
(lp812
I249
aI63
aI161
aI61
asS'BioID_1501'
p813
(lp814
I196
aI64
aI150
aI65
asS'BioID_1502'
p815
(lp816
I192
aI64
aI147
aI67
asS'BioID_1051'
p817
(lp818
I207
aI95
aI161
aI98
asS'BioID_1504'
p819
(lp820
I192
aI60
aI147
aI63
asS'BioID_1057'
p821
(lp822
I215
aI91
aI169
aI92
asS'BioID_1506'
p823
(lp824
I190
aI57
aI146
aI59
asS'BioID_1055'
p825
(lp826
I216
aI99
aI170
aI99
asS'BioID_0594'
p827
(lp828
I169
aI68
aI109
aI65
asS'BioID_0595'
p829
(lp830
I181
aI61
aI129
aI59
asS'BioID_0596'
p831
(lp832
I176
aI62
aI126
aI59
asS'BioID_0265'
p833
(lp834
I240
aI122
aI194
aI123
asS'BioID_0909'
p835
(lp836
I231
aI83
aI177
aI81
asS'BioID_0908'
p837
(lp838
I227
aI85
aI173
aI84
asS'BioID_0907'
p839
(lp840
I228
aI83
aI174
aI82
asS'BioID_0906'
p841
(lp842
I217
aI78
aI163
aI78
asS'BioID_0905'
p843
(lp844
I223
aI82
aI169
aI81
asS'BioID_0904'
p845
(lp846
I224
aI81
aI171
aI83
asS'BioID_0903'
p847
(lp848
I214
aI76
aI158
aI76
asS'BioID_0902'
p849
(lp850
I225
aI80
aI169
aI80
asS'BioID_0901'
p851
(lp852
I228
aI79
aI172
aI78
asS'BioID_0900'
p853
(lp854
I214
aI78
aI157
aI78
asS'BioID_0589'
p855
(lp856
I192
aI59
aI146
aI55
asS'BioID_0588'
p857
(lp858
I185
aI61
aI141
aI61
asS'BioID_0592'
p859
(lp860
I174
aI71
aI117
aI70
asS'BioID_0583'
p861
(lp862
I206
aI78
aI158
aI77
asS'BioID_0582'
p863
(lp864
I207
aI81
aI159
aI79
asS'BioID_0581'
p865
(lp866
I199
aI85
aI152
aI84
asS'BioID_0580'
p867
(lp868
I206
aI78
aI159
aI77
asS'BioID_0587'
p869
(lp870
I210
aI68
aI162
aI66
asS'BioID_0586'
p871
(lp872
I201
aI79
aI153
aI76
asS'BioID_0585'
p873
(lp874
I212
aI86
aI164
aI84
asS'BioID_0584'
p875
(lp876
I211
aI83
aI164
aI81
asS'BioID_0275'
p877
(lp878
I238
aI123
aI191
aI124
asS'BioID_0274'
p879
(lp880
I243
aI125
aI198
aI124
asS'BioID_0277'
p881
(lp882
I240
aI121
aI195
aI119
asS'BioID_0276'
p883
(lp884
I241
aI117
aI196
aI117
asS'BioID_0271'
p885
(lp886
I244
aI124
aI199
aI123
asS'BioID_0270'
p887
(lp888
I245
aI124
aI199
aI123
asS'BioID_0273'
p889
(lp890
I245
aI119
aI200
aI117
asS'BioID_0272'
p891
(lp892
I241
aI120
aI196
aI119
asS'BioID_0279'
p893
(lp894
I240
aI115
aI195
aI112
asS'BioID_0278'
p895
(lp896
I242
aI121
aI196
aI117
asS'BioID_0614'
p897
(lp898
I206
aI100
aI146
aI100
asS'BioID_0345'
p899
(lp900
I191
aI128
aI133
aI127
asS'BioID_0344'
p901
(lp902
I130
aI138
aI86
aI144
asS'BioID_0611'
p903
(lp904
I203
aI96
aI145
aI94
asS'BioID_0346'
p905
(lp906
I184
aI118
aI129
aI117
asS'BioID_0479'
p907
(lp908
I184
aI129
aI138
aI128
asS'BioID_0478'
p909
(lp910
I178
aI126
aI133
aI126
asS'BioID_0477'
p911
(lp912
I182
aI129
aI137
aI125
asS'BioID_0476'
p913
(lp914
I186
aI131
aI140
aI127
asS'BioID_0475'
p915
(lp916
I187
aI124
aI141
aI122
asS'BioID_0474'
p917
(lp918
I182
aI131
aI137
aI131
asS'BioID_0473'
p919
(lp920
I186
aI130
aI140
aI127
asS'BioID_0472'
p921
(lp922
I182
aI123
aI136
aI123
asS'BioID_0471'
p923
(lp924
I183
aI130
aI137
aI129
asS'BioID_0470'
p925
(lp926
I186
aI134
aI140
aI130
asS'BioID_0679'
p927
(lp928
I222
aI115
aI164
aI110
asS'BioID_0678'
p929
(lp930
I214
aI120
aI157
aI115
asS'BioID_0671'
p931
(lp932
I213
aI113
aI155
aI109
asS'BioID_0670'
p933
(lp934
I212
aI118
aI150
aI113
asS'BioID_0673'
p935
(lp936
I221
aI105
aI171
aI106
asS'BioID_0672'
p937
(lp938
I214
aI115
aI152
aI109
asS'BioID_0675'
p939
(lp940
I213
aI114
aI155
aI110
asS'BioID_0674'
p941
(lp942
I206
aI111
aI149
aI107
asS'BioID_0677'
p943
(lp944
I213
aI116
aI148
aI112
asS'BioID_0676'
p945
(lp946
I204
aI128
aI145
aI124
asS'BioID_0396'
p947
(lp948
I151
aI97
aI107
aI97
asS'BioID_1337'
p949
(lp950
I227
aI76
aI190
aI76
asS'BioID_1336'
p951
(lp952
I231
aI86
aI183
aI86
asS'BioID_1335'
p953
(lp954
I230
aI79
aI183
aI79
asS'BioID_1334'
p955
(lp956
I237
aI93
aI188
aI93
asS'BioID_1333'
p957
(lp958
I239
aI96
aI187
aI97
asS'BioID_1332'
p959
(lp960
I228
aI72
aI193
aI73
asS'BioID_1331'
p961
(lp962
I228
aI75
aI193
aI76
asS'BioID_1330'
p963
(lp964
I231
aI75
aI193
aI75
asS'BioID_1339'
p965
(lp966
I227
aI75
aI188
aI74
asS'BioID_1338'
p967
(lp968
I222
aI75
aI185
aI74
asS'BioID_0461'
p969
(lp970
I187
aI133
aI141
aI132
asS'BioID_0930'
p971
(lp972
I237
aI102
aI178
aI100
asS'BioID_1158'
p973
(lp974
I226
aI71
aI169
aI73
asS'BioID_0110'
p975
(lp976
I233
aI111
aI168
aI112
asS'BioID_0111'
p977
(lp978
I231
aI114
aI166
aI115
asS'BioID_1429'
p979
(lp980
I183
aI94
aI132
aI93
asS'BioID_1428'
p981
(lp982
I185
aI93
aI135
aI93
asS'BioID_0114'
p983
(lp984
I228
aI115
aI164
aI117
asS'BioID_0115'
p985
(lp986
I216
aI201
aI150
aI198
asS'BioID_0116'
p987
(lp988
I202
aI202
aI138
aI199
asS'BioID_0117'
p989
(lp990
I238
aI107
aI174
aI105
asS'BioID_1423'
p991
(lp992
I224
aI85
aI175
aI86
asS'BioID_1422'
p993
(lp994
I236
aI92
aI191
aI91
asS'BioID_1421'
p995
(lp996
I238
aI93
aI194
aI90
asS'BioID_1420'
p997
(lp998
I231
aI85
aI187
aI86
asS'BioID_1427'
p999
(lp1000
I190
aI97
aI139
aI94
asS'BioID_1426'
p1001
(lp1002
I194
aI95
aI143
aI94
asS'BioID_1425'
p1003
(lp1004
I235
aI95
aI184
aI95
asS'BioID_1424'
p1005
(lp1006
I235
aI95
aI183
aI95
asS'BioID_0938'
p1007
(lp1008
I240
aI109
aI180
aI106
asS'BioID_0939'
p1009
(lp1010
I233
aI109
aI173
aI104
asS'BioID_1510'
p1011
(lp1012
I189
aI58
aI145
aI61
asS'BioID_0807'
p1013
(lp1014
I177
aI99
aI135
aI101
asS'BioID_0804'
p1015
(lp1016
I180
aI99
aI137
aI101
asS'BioID_0805'
p1017
(lp1018
I175
aI99
aI132
aI101
asS'BioID_0802'
p1019
(lp1020
I172
aI99
aI129
aI101
asS'BioID_0803'
p1021
(lp1022
I179
aI99
aI137
aI100
asS'BioID_0800'
p1023
(lp1024
I175
aI97
aI131
aI98
asS'BioID_0801'
p1025
(lp1026
I171
aI99
aI127
aI101
asS'BioID_0808'
p1027
(lp1028
I176
aI99
aI133
aI99
asS'BioID_0809'
p1029
(lp1030
I177
aI99
aI133
aI100
asS'BioID_0064'
p1031
(lp1032
I238
aI97
aI156
aI98
asS'BioID_0065'
p1033
(lp1034
I233
aI83
aI151
aI83
asS'BioID_0066'
p1035
(lp1036
I245
aI105
aI165
aI107
asS'BioID_0067'
p1037
(lp1038
I243
aI94
aI160
aI96
asS'BioID_0060'
p1039
(lp1040
I247
aI69
aI157
aI65
asS'BioID_0061'
p1041
(lp1042
I247
aI74
aI157
aI70
asS'BioID_1519'
p1043
(lp1044
I231
aI141
aI159
aI138
asS'BioID_1518'
p1045
(lp1046
I228
aI141
aI157
aI135
asS'BioID_1517'
p1047
(lp1048
I227
aI133
aI156
aI131
asS'BioID_1516'
p1049
(lp1050
I224
aI132
aI154
aI129
asS'BioID_1043'
p1051
(lp1052
I185
aI70
aI141
aI70
asS'BioID_1514'
p1053
(lp1054
I195
aI60
aI151
aI61
asS'BioID_1513'
p1055
(lp1056
I189
aI56
aI146
aI58
asS'BioID_1512'
p1057
(lp1058
I190
aI61
aI146
aI63
asS'BioID_1511'
p1059
(lp1060
I184
aI67
aI140
aI68
asS'BioID_1046'
p1061
(lp1062
I194
aI77
aI147
aI75
asS'BioID_1199'
p1063
(lp1064
I214
aI63
aI169
aI64
asS'BioID_1198'
p1065
(lp1066
I217
aI63
aI172
aI65
asS'BioID_1193'
p1067
(lp1068
I215
aI53
aI166
aI56
asS'BioID_1192'
p1069
(lp1070
I230
aI67
aI184
aI67
asS'BioID_1191'
p1071
(lp1072
I219
aI48
aI172
aI48
asS'BioID_1190'
p1073
(lp1074
I229
aI54
aI178
aI55
asS'BioID_1197'
p1075
(lp1076
I217
aI65
aI170
aI66
asS'BioID_1196'
p1077
(lp1078
I221
aI66
aI174
aI68
asS'BioID_1195'
p1079
(lp1080
I224
aI71
aI176
aI72
asS'BioID_1194'
p1081
(lp1082
I220
aI62
aI173
aI64
asS'BioID_0248'
p1083
(lp1084
I254
aI118
aI202
aI117
asS'BioID_0249'
p1085
(lp1086
I262
aI110
aI211
aI107
asS'BioID_0240'
p1087
(lp1088
I234
aI122
aI188
aI117
asS'BioID_0241'
p1089
(lp1090
I251
aI98
aI202
aI98
asS'BioID_0242'
p1091
(lp1092
I264
aI108
aI213
aI105
asS'BioID_0243'
p1093
(lp1094
I256
aI107
aI205
aI104
asS'BioID_0244'
p1095
(lp1096
I261
aI114
aI210
aI111
asS'BioID_0245'
p1097
(lp1098
I243
aI109
aI193
aI107
asS'BioID_0246'
p1099
(lp1100
I266
aI116
aI214
aI114
asS'BioID_0247'
p1101
(lp1102
I258
aI121
aI205
aI117
asS'BioID_0482'
p1103
(lp1104
I222
aI74
aI147
aI76
asS'BioID_0483'
p1105
(lp1106
I151
aI148
aI104
aI154
asS'BioID_0480'
p1107
(lp1108
I185
aI132
aI141
aI132
asS'BioID_0481'
p1109
(lp1110
I179
aI133
aI134
aI131
asS'BioID_0486'
p1111
(lp1112
I156
aI128
aI104
aI132
asS'BioID_0487'
p1113
(lp1114
I207
aI125
aI154
aI128
asS'BioID_0484'
p1115
(lp1116
I156
aI123
aI103
aI127
asS'BioID_0485'
p1117
(lp1118
I180
aI143
aI135
aI150
asS'BioID_0488'
p1119
(lp1120
I197
aI121
aI145
aI124
asS'BioID_0489'
p1121
(lp1122
I195
aI137
aI145
aI140
asS'BioID_0648'
p1123
(lp1124
I232
aI112
aI177
aI110
asS'BioID_0649'
p1125
(lp1126
I181
aI98
aI134
aI95
asS'BioID_0644'
p1127
(lp1128
I211
aI84
aI156
aI82
asS'BioID_0645'
p1129
(lp1130
I241
aI104
aI187
aI106
asS'BioID_0646'
p1131
(lp1132
I256
aI110
aI201
aI104
asS'BioID_0647'
p1133
(lp1134
I240
aI104
aI184
aI105
asS'BioID_0640'
p1135
(lp1136
I206
aI69
aI144
aI66
asS'BioID_0641'
p1137
(lp1138
I208
aI70
aI149
aI65
asS'BioID_0642'
p1139
(lp1140
I212
aI68
aI153
aI64
asS'BioID_0643'
p1141
(lp1142
I212
aI81
aI158
aI82
asS'BioID_0330'
p1143
(lp1144
I191
aI109
aI147
aI107
asS'BioID_0331'
p1145
(lp1146
I204
aI145
aI160
aI142
asS'BioID_0840'
p1147
(lp1148
I223
aI155
aI164
aI152
asS'BioID_0841'
p1149
(lp1150
I224
aI158
aI165
aI156
asS'BioID_0334'
p1151
(lp1152
I197
aI125
aI150
aI123
asS'BioID_0847'
p1153
(lp1154
I226
aI159
aI167
aI157
asS'BioID_0336'
p1155
(lp1156
I192
aI130
aI144
aI127
asS'BioID_0337'
p1157
(lp1158
I199
aI136
aI150
aI132
asS'BioID_1128'
p1159
(lp1160
I227
aI100
aI171
aI104
asS'BioID_1129'
p1161
(lp1162
I231
aI103
aI174
aI106
asS'BioID_1122'
p1163
(lp1164
I230
aI98
aI174
aI103
asS'BioID_1123'
p1165
(lp1166
I226
aI87
aI170
aI93
asS'BioID_0107'
p1167
(lp1168
I229
aI113
aI165
aI115
asS'BioID_0106'
p1169
(lp1170
I228
aI116
aI166
aI118
asS'BioID_0105'
p1171
(lp1172
I233
aI111
aI170
aI113
asS'BioID_0104'
p1173
(lp1174
I229
aI109
aI165
aI113
asS'BioID_0103'
p1175
(lp1176
I227
aI113
aI164
aI116
asS'BioID_0102'
p1177
(lp1178
I223
aI115
aI157
aI118
asS'BioID_1458'
p1179
(lp1180
I204
aI64
aI142
aI63
asS'BioID_1459'
p1181
(lp1182
I205
aI62
aI142
aI62
asS'BioID_1456'
p1183
(lp1184
I207
aI61
aI145
aI61
asS'BioID_1457'
p1185
(lp1186
I202
aI58
aI141
aI57
asS'BioID_1454'
p1187
(lp1188
I196
aI60
aI135
aI59
asS'BioID_1455'
p1189
(lp1190
I203
aI58
aI140
aI57
asS'BioID_1452'
p1191
(lp1192
I211
aI56
aI149
aI54
asS'BioID_1453'
p1193
(lp1194
I197
aI57
aI137
aI57
asS'BioID_1450'
p1195
(lp1196
I217
aI29
aI139
aI28
asS'BioID_0108'
p1197
(lp1198
I230
aI111
aI166
aI113
asS'BioID_1298'
p1199
(lp1200
I217
aI83
aI158
aI86
asS'BioID_1299'
p1201
(lp1202
I222
aI93
aI160
aI100
asS'BioID_1290'
p1203
(lp1204
I256
aI75
aI203
aI77
asS'BioID_1291'
p1205
(lp1206
I261
aI72
aI209
aI73
asS'BioID_1292'
p1207
(lp1208
I251
aI74
aI201
aI77
asS'BioID_1293'
p1209
(lp1210
I226
aI130
aI164
aI137
asS'BioID_1294'
p1211
(lp1212
I218
aI93
aI165
aI98
asS'BioID_1295'
p1213
(lp1214
I216
aI96
aI162
aI101
asS'BioID_1296'
p1215
(lp1216
I220
aI87
aI163
aI91
asS'BioID_1297'
p1217
(lp1218
I215
aI77
aI155
aI81
asS'BioID_0815'
p1219
(lp1220
I207
aI86
aI158
aI84
asS'BioID_0814'
p1221
(lp1222
I209
aI92
aI159
aI88
asS'BioID_0079'
p1223
(lp1224
I230
aI122
aI146
aI129
asS'BioID_0078'
p1225
(lp1226
I230
aI122
aI145
aI127
asS'BioID_0811'
p1227
(lp1228
I208
aI102
aI156
aI101
asS'BioID_0810'
p1229
(lp1230
I198
aI102
aI147
aI99
asS'BioID_0813'
p1231
(lp1232
I218
aI104
aI167
aI101
asS'BioID_0812'
p1233
(lp1234
I224
aI98
aI172
aI94
asS'BioID_0073'
p1235
(lp1236
I236
aI86
aI150
aI87
asS'BioID_0072'
p1237
(lp1238
I234
aI61
aI148
aI64
asS'BioID_0071'
p1239
(lp1240
I238
aI77
aI151
aI78
asS'BioID_0070'
p1241
(lp1242
I238
aI139
aI155
aI138
asS'BioID_0819'
p1243
(lp1244
I216
aI136
aI158
aI132
asS'BioID_0818'
p1245
(lp1246
I211
aI125
aI152
aI123
asS'BioID_0075'
p1247
(lp1248
I242
aI100
aI159
aI103
asS'BioID_0074'
p1249
(lp1250
I240
aI83
aI154
aI83
asS'BioID_0385'
p1251
(lp1252
I219
aI97
aI176
aI97
asS'BioID_1078'
p1253
(lp1254
I226
aI79
aI181
aI78
asS'BioID_1079'
p1255
(lp1256
I247
aI60
aI177
aI63
asS'BioID_0384'
p1257
(lp1258
I215
aI100
aI173
aI101
asS'BioID_1074'
p1259
(lp1260
I232
aI94
aI182
aI96
asS'BioID_1075'
p1261
(lp1262
I215
aI77
aI171
aI78
asS'BioID_1076'
p1263
(lp1264
I229
aI83
aI182
aI82
asS'BioID_1077'
p1265
(lp1266
I219
aI74
aI174
aI74
asS'BioID_1070'
p1267
(lp1268
I219
aI82
aI175
aI83
asS'BioID_0835'
p1269
(lp1270
I234
aI153
aI174
aI149
asS'BioID_1072'
p1271
(lp1272
I216
aI63
aI162
aI64
asS'BioID_1073'
p1273
(lp1274
I213
aI88
aI164
aI93
asS'BioID_0834'
p1275
(lp1276
I213
aI156
aI154
aI153
asS'BioID_0833'
p1277
(lp1278
I219
aI152
aI159
aI149
asS'BioID_0380'
p1279
(lp1280
I216
aI108
aI172
aI107
asS'BioID_0831'
p1281
(lp1282
I210
aI121
aI150
aI120
asS'BioID_0830'
p1283
(lp1284
I207
aI82
aI155
aI80
asS'BioID_0259'
p1285
(lp1286
I248
aI112
aI199
aI108
asS'BioID_0258'
p1287
(lp1288
I248
aI112
aI199
aI109
asS'BioID_0257'
p1289
(lp1290
I247
aI113
aI198
aI110
asS'BioID_0256'
p1291
(lp1292
I250
aI113
aI202
aI108
asS'BioID_0255'
p1293
(lp1294
I244
aI114
aI196
aI109
asS'BioID_0254'
p1295
(lp1296
I248
aI113
aI200
aI109
asS'BioID_0253'
p1297
(lp1298
I248
aI114
aI199
aI111
asS'BioID_0252'
p1299
(lp1300
I240
aI112
aI192
aI110
asS'BioID_0251'
p1301
(lp1302
I248
aI112
aI199
aI108
asS'BioID_0250'
p1303
(lp1304
I259
aI113
aI208
aI111
asS'BioID_0176'
p1305
(lp1306
I255
aI44
aI170
aI42
asS'BioID_0491'
p1307
(lp1308
I191
aI136
aI142
aI139
asS'BioID_0490'
p1309
(lp1310
I190
aI135
aI141
aI139
asS'BioID_0493'
p1311
(lp1312
I189
aI137
aI141
aI141
asS'BioID_0492'
p1313
(lp1314
I190
aI133
aI142
aI138
asS'BioID_0495'
p1315
(lp1316
I180
aI128
aI132
aI130
asS'BioID_0494'
p1317
(lp1318
I181
aI131
aI132
aI135
asS'BioID_0497'
p1319
(lp1320
I186
aI132
aI137
aI135
asS'BioID_0496'
p1321
(lp1322
I187
aI132
aI138
aI135
asS'BioID_0499'
p1323
(lp1324
I183
aI132
aI134
aI135
asS'BioID_0498'
p1325
(lp1326
I184
aI130
aI136
aI133
asS'BioID_0653'
p1327
(lp1328
I205
aI116
aI157
aI114
asS'BioID_0652'
p1329
(lp1330
I201
aI114
aI153
aI114
asS'BioID_0651'
p1331
(lp1332
I194
aI103
aI146
aI96
asS'BioID_0650'
p1333
(lp1334
I190
aI101
aI144
aI95
asS'BioID_0657'
p1335
(lp1336
I221
aI99
aI157
aI97
asS'BioID_0656'
p1337
(lp1338
I207
aI95
aI141
aI93
asS'BioID_0655'
p1339
(lp1340
I191
aI75
aI135
aI75
asS'BioID_0654'
p1341
(lp1342
I199
aI76
aI142
aI76
asS'BioID_0659'
p1343
(lp1344
I216
aI96
aI154
aI94
asS'BioID_0658'
p1345
(lp1346
I216
aI94
aI153
aI93
asS'BioID_0209'
p1347
(lp1348
I232
aI111
aI166
aI111
asS'BioID_0101'
p1349
(lp1350
I227
aI111
aI164
aI113
asS'BioID_0100'
p1351
(lp1352
I233
aI117
aI166
aI118
asS'BioID_0109'
p1353
(lp1354
I229
aI115
aI164
aI118
asS'BioID_1451'
p1355
(lp1356
I209
aI54
aI147
aI53
asS'BioID_0179'
p1357
(lp1358
I254
aI54
aI168
aI52
asS'BioID_1449'
p1359
(lp1360
I206
aI36
aI127
aI37
asS'BioID_1448'
p1361
(lp1362
I210
aI27
aI131
aI27
asS'BioID_1445'
p1363
(lp1364
I214
aI46
aI135
aI46
asS'BioID_1444'
p1365
(lp1366
I220
aI55
aI140
aI53
asS'BioID_1447'
p1367
(lp1368
I210
aI37
aI131
aI38
asS'BioID_1446'
p1369
(lp1370
I213
aI37
aI134
aI35
asS'BioID_1441'
p1371
(lp1372
I220
aI102
aI125
aI103
asS'BioID_1440'
p1373
(lp1374
I190
aI91
aI142
aI91
asS'BioID_1443'
p1375
(lp1376
I218
aI54
aI138
aI55
asS'BioID_1442'
p1377
(lp1378
I217
aI52
aI135
aI54
asS'BioID_1289'
p1379
(lp1380
I256
aI79
aI202
aI81
asS'BioID_1288'
p1381
(lp1382
I257
aI76
aI205
aI77
asS'BioID_1287'
p1383
(lp1384
I251
aI85
aI199
aI86
asS'BioID_1286'
p1385
(lp1386
I255
aI93
aI202
aI95
asS'BioID_1285'
p1387
(lp1388
I259
aI88
aI207
aI88
asS'BioID_1284'
p1389
(lp1390
I254
aI83
aI202
aI84
asS'BioID_1283'
p1391
(lp1392
I252
aI84
aI198
aI85
asS'BioID_1282'
p1393
(lp1394
I251
aI83
aI198
aI86
asS'BioID_1281'
p1395
(lp1396
I249
aI86
aI198
aI89
asS'BioID_1280'
p1397
(lp1398
I257
aI87
aI204
aI89
asS'BioID_0943'
p1399
(lp1400
I239
aI117
aI174
aI115
asS'BioID_0008'
p1401
(lp1402
I223
aI94
aI149
aI95
asS'BioID_0009'
p1403
(lp1404
I226
aI110
aI147
aI111
asS'BioID_0006'
p1405
(lp1406
I231
aI99
aI159
aI98
asS'BioID_0007'
p1407
(lp1408
I224
aI95
aI146
aI94
asS'BioID_0004'
p1409
(lp1410
I223
aI98
aI151
aI98
asS'BioID_0005'
p1411
(lp1412
I222
aI95
aI151
aI96
asS'BioID_0002'
p1413
(lp1414
I213
aI87
aI144
aI87
asS'BioID_0003'
p1415
(lp1416
I216
aI95
aI147
aI94
asS'BioID_0000'
p1417
(lp1418
I232
aI110
aI161
aI110
asS'BioID_0001'
p1419
(lp1420
I223
aI103
aI154
aI102
asS'BioID_1063'
p1421
(lp1422
I221
aI89
aI175
aI90
asS'BioID_1062'
p1423
(lp1424
I214
aI90
aI169
aI90
asS'BioID_1061'
p1425
(lp1426
I209
aI88
aI164
aI89
asS'BioID_1060'
p1427
(lp1428
I215
aI79
aI173
aI79
asS'BioID_1067'
p1429
(lp1430
I220
aI74
aI178
aI75
asS'BioID_1066'
p1431
(lp1432
I223
aI84
aI180
aI85
asS'BioID_1065'
p1433
(lp1434
I224
aI79
aI182
aI79
asS'BioID_1064'
p1435
(lp1436
I220
aI86
aI178
aI88
asS'BioID_0958'
p1437
(lp1438
I242
aI121
aI178
aI117
asS'BioID_1069'
p1439
(lp1440
I185
aI77
aI149
aI100
asS'BioID_1068'
p1441
(lp1442
I224
aI80
aI179
aI81
asS'BioID_0775'
p1443
(lp1444
I213
aI118
aI175
aI117
asS'BioID_0778'
p1445
(lp1446
I210
aI119
aI169
aI118
asS'BioID_0779'
p1447
(lp1448
I186
aI115
aI141
aI116
asS'BioID_0077'
p1449
(lp1450
I235
aI143
aI150
aI147
asS'BioID_0076'
p1451
(lp1452
I234
aI163
aI153
aI167
asS'BioID_0712'
p1453
(lp1454
I229
aI122
aI167
aI122
asS'BioID_0713'
p1455
(lp1456
I231
aI121
aI171
aI122
asS'BioID_0710'
p1457
(lp1458
I259
aI96
aI184
aI90
asS'BioID_0711'
p1459
(lp1460
I235
aI117
aI177
aI118
asS'BioID_0716'
p1461
(lp1462
I232
aI151
aI171
aI151
asS'BioID_0717'
p1463
(lp1464
I227
aI132
aI167
aI129
asS'BioID_0714'
p1465
(lp1466
I229
aI116
aI169
aI118
asS'BioID_0715'
p1467
(lp1468
I225
aI126
aI162
aI129
asS'BioID_0718'
p1469
(lp1470
I227
aI159
aI167
aI157
asS'BioID_0719'
p1471
(lp1472
I227
aI131
aI167
aI128
asS'BioID_0172'
p1473
(lp1474
I268
aI64
aI182
aI61
asS'BioID_1174'
p1475
(lp1476
I204
aI12
aI152
aI17
asS'BioID_1177'
p1477
(lp1478
I221
aI67
aI175
aI73
asS'BioID_0828'
p1479
(lp1480
I218
aI107
aI167
aI109
asS'BioID_0829'
p1481
(lp1482
I209
aI120
aI154
aI118
asS'BioID_0171'
p1483
(lp1484
I260
aI68
aI175
aI67
asS'BioID_0398'
p1485
(lp1486
I162
aI100
aI116
aI100
asS'BioID_0399'
p1487
(lp1488
I168
aI103
aI123
aI103
asS'BioID_0820'
p1489
(lp1490
I205
aI100
aI155
aI98
asS'BioID_0397'
p1491
(lp1492
I158
aI92
aI114
aI92
asS'BioID_0822'
p1493
(lp1494
I225
aI115
aI173
aI112
asS'BioID_0395'
p1495
(lp1496
I164
aI105
aI120
aI104
asS'BioID_0392'
p1497
(lp1498
I162
aI110
aI120
aI108
asS'BioID_0825'
p1499
(lp1500
I207
aI115
aI154
aI113
asS'BioID_0390'
p1501
(lp1502
I161
aI118
aI118
aI117
asS'BioID_0177'
p1503
(lp1504
I227
aI34
aI141
aI32
asS'BioID_1173'
p1505
(lp1506
I183
aI73
aI132
aI65
asS'BioID_0175'
p1507
(lp1508
I251
aI54
aI166
aI54
asS'BioID_0942'
p1509
(lp1510
I233
aI89
aI190
aI88
asS'BioID_0626'
p1511
(lp1512
I206
aI100
aI147
aI99
asS'BioID_0627'
p1513
(lp1514
I204
aI98
aI145
aI97
asS'BioID_0624'
p1515
(lp1516
I209
aI87
aI154
aI87
asS'BioID_0625'
p1517
(lp1518
I206
aI77
aI153
aI79
asS'BioID_0622'
p1519
(lp1520
I211
aI81
aI155
aI79
asS'BioID_0623'
p1521
(lp1522
I209
aI90
aI153
aI88
asS'BioID_0620'
p1523
(lp1524
I212
aI86
aI157
aI84
asS'BioID_0621'
p1525
(lp1526
I209
aI84
aI153
aI83
asS'BioID_0628'
p1527
(lp1528
I210
aI90
aI152
aI89
asS'BioID_0629'
p1529
(lp1530
I211
aI77
aI159
aI76
asS'BioID_0538'
p1531
(lp1532
I223
aI104
aI169
aI103
asS'BioID_0539'
p1533
(lp1534
I227
aI105
aI169
aI105
asS'BioID_0532'
p1535
(lp1536
I214
aI110
aI159
aI109
asS'BioID_0533'
p1537
(lp1538
I211
aI104
aI156
aI104
asS'BioID_0530'
p1539
(lp1540
I210
aI104
aI155
aI104
asS'BioID_0531'
p1541
(lp1542
I213
aI109
aI155
aI109
asS'BioID_0536'
p1543
(lp1544
I208
aI109
aI152
aI109
asS'BioID_0537'
p1545
(lp1546
I215
aI109
aI160
aI108
asS'BioID_0534'
p1547
(lp1548
I208
aI111
aI152
aI111
asS'BioID_0535'
p1549
(lp1550
I208
aI111
aI152
aI110
asS'BioID_1470'
p1551
(lp1552
I204
aI63
aI141
aI63
asS'BioID_1471'
p1553
(lp1554
I207
aI65
aI146
aI65
asS'BioID_1472'
p1555
(lp1556
I207
aI65
aI144
aI64
asS'BioID_1473'
p1557
(lp1558
I229
aI39
aI126
aI39
asS'BioID_1474'
p1559
(lp1560
I232
aI36
aI137
aI38
asS'BioID_1475'
p1561
(lp1562
I232
aI42
aI144
aI44
asS'BioID_1476'
p1563
(lp1564
I224
aI35
aI142
aI36
asS'BioID_1477'
p1565
(lp1566
I232
aI48
aI133
aI53
asS'BioID_1478'
p1567
(lp1568
I221
aI48
aI124
aI50
asS'BioID_1479'
p1569
(lp1570
I246
aI83
aI146
aI81
asS'BioID_1272'
p1571
(lp1572
I257
aI77
aI206
aI79
asS'BioID_1273'
p1573
(lp1574
I266
aI81
aI216
aI80
asS'BioID_1270'
p1575
(lp1576
I256
aI65
aI205
aI68
asS'BioID_1271'
p1577
(lp1578
I258
aI73
aI208
aI75
asS'BioID_1276'
p1579
(lp1580
I259
aI83
aI209
aI84
asS'BioID_1277'
p1581
(lp1582
I258
aI89
aI207
aI89
asS'BioID_1274'
p1583
(lp1584
I259
aI76
aI208
aI79
asS'BioID_1275'
p1585
(lp1586
I260
aI74
aI209
aI76
asS'BioID_1278'
p1587
(lp1588
I255
aI83
aI204
aI85
asS'BioID_1279'
p1589
(lp1590
I257
aI85
aI205
aI87
asS'BioID_0019'
p1591
(lp1592
I196
aI134
aI130
aI135
asS'BioID_0018'
p1593
(lp1594
I241
aI146
aI156
aI159
asS'BioID_0015'
p1595
(lp1596
I231
aI129
aI137
aI129
asS'BioID_0014'
p1597
(lp1598
I230
aI137
aI133
aI138
asS'BioID_0017'
p1599
(lp1600
I228
aI123
aI155
aI123
asS'BioID_0016'
p1601
(lp1602
I230
aI128
aI158
aI126
asS'BioID_0011'
p1603
(lp1604
I225
aI112
aI145
aI111
asS'BioID_0010'
p1605
(lp1606
I238
aI107
aI160
aI113
asS'BioID_0013'
p1607
(lp1608
I219
aI110
aI132
aI110
asS'BioID_0012'
p1609
(lp1610
I213
aI113
aI134
aI114
asS'BioID_1016'
p1611
(lp1612
I235
aI143
aI148
aI137
asS'BioID_1017'
p1613
(lp1614
I236
aI126
aI150
aI124
asS'BioID_1014'
p1615
(lp1616
I224
aI129
aI162
aI130
asS'BioID_1015'
p1617
(lp1618
I241
aI146
aI157
aI143
asS'BioID_1012'
p1619
(lp1620
I227
aI96
aI183
aI98
asS'BioID_1013'
p1621
(lp1622
I217
aI123
aI157
aI124
asS'BioID_1010'
p1623
(lp1624
I226
aI91
aI182
aI93
asS'BioID_1011'
p1625
(lp1626
I226
aI95
aI182
aI98
asS'BioID_1018'
p1627
(lp1628
I229
aI97
aI139
aI96
asS'BioID_1019'
p1629
(lp1630
I232
aI111
aI147
aI107
asS'BioID_1386'
p1631
(lp1632
I238
aI122
aI179
aI121
asS'BioID_1387'
p1633
(lp1634
I229
aI108
aI184
aI107
asS'BioID_1384'
p1635
(lp1636
I237
aI97
aI174
aI102
asS'BioID_1385'
p1637
(lp1638
I243
aI108
aI182
aI111
asS'BioID_1382'
p1639
(lp1640
I249
aI106
aI186
aI108
asS'BioID_1383'
p1641
(lp1642
I242
aI105
aI180
aI109
asS'BioID_1380'
p1643
(lp1644
I243
aI109
aI182
aI110
asS'BioID_1381'
p1645
(lp1646
I244
aI101
aI182
aI106
asS'BioID_1388'
p1647
(lp1648
I228
aI106
aI184
aI105
asS'BioID_1389'
p1649
(lp1650
I231
aI112
aI187
aI110
asS'BioID_0701'
p1651
(lp1652
I201
aI122
aI145
aI120
asS'BioID_0700'
p1653
(lp1654
I197
aI126
aI142
aI123
asS'BioID_0703'
p1655
(lp1656
I203
aI122
aI147
aI118
asS'BioID_0702'
p1657
(lp1658
I211
aI122
aI156
aI117
asS'BioID_0705'
p1659
(lp1660
I209
aI122
aI155
aI119
asS'BioID_0704'
p1661
(lp1662
I216
aI123
aI162
aI119
asS'BioID_0707'
p1663
(lp1664
I249
aI59
aI175
aI55
asS'BioID_0706'
p1665
(lp1666
I241
aI61
aI172
aI59
asS'BioID_0709'
p1667
(lp1668
I252
aI87
aI176
aI81
asS'BioID_0708'
p1669
(lp1670
I238
aI65
aI166
aI64
asS'BioID_1120'
p1671
(lp1672
I232
aI76
aI183
aI82
asS'BioID_1121'
p1673
(lp1674
I234
aI81
aI184
aI86
asS'BioID_1126'
p1675
(lp1676
I219
aI132
aI162
aI128
asS'BioID_1127'
p1677
(lp1678
I233
aI103
aI176
aI106
asS'BioID_1124'
p1679
(lp1680
I239
aI96
aI183
aI99
asS'BioID_1125'
p1681
(lp1682
I233
aI102
aI176
aI107
asS'BioID_1498'
p1683
(lp1684
I196
aI61
aI149
aI63
asS'BioID_1499'
p1685
(lp1686
I190
aI56
aI144
aI58
asS'BioID_1492'
p1687
(lp1688
I226
aI78
aI143
aI77
asS'BioID_1493'
p1689
(lp1690
I212
aI79
aI129
aI80
asS'BioID_1490'
p1691
(lp1692
I193
aI30
aI150
aI31
asS'BioID_1491'
p1693
(lp1694
I221
aI71
aI139
aI72
asS'BioID_1496'
p1695
(lp1696
I197
aI71
aI145
aI73
asS'BioID_1497'
p1697
(lp1698
I195
aI57
aI147
aI59
asS'BioID_1494'
p1699
(lp1700
I206
aI95
aI127
aI95
asS'BioID_1495'
p1701
(lp1702
I197
aI84
aI143
aI87
asS'BioID_0389'
p1703
(lp1704
I173
aI124
aI131
aI123
asS'BioID_0388'
p1705
(lp1706
I170
aI119
aI127
aI118
asS'BioID_0839'
p1707
(lp1708
I216
aI151
aI157
aI151
asS'BioID_0838'
p1709
(lp1710
I226
aI157
aI164
aI153
asS'BioID_0837'
p1711
(lp1712
I229
aI160
aI170
aI155
asS'BioID_0836'
p1713
(lp1714
I222
aI154
aI162
aI151
asS'BioID_0387'
p1715
(lp1716
I221
aI103
aI178
aI103
asS'BioID_0386'
p1717
(lp1718
I219
aI104
aI174
aI104
asS'BioID_0381'
p1719
(lp1720
I236
aI98
aI190
aI97
asS'BioID_0832'
p1721
(lp1722
I212
aI148
aI153
aI144
asS'BioID_0383'
p1723
(lp1724
I224
aI108
aI179
aI108
asS'BioID_0382'
p1725
(lp1726
I229
aI99
aI183
aI99
asS'BioID_0635'
p1727
(lp1728
I211
aI131
aI148
aI131
asS'BioID_0634'
p1729
(lp1730
I240
aI129
aI176
aI130
asS'BioID_0637'
p1731
(lp1732
I226
aI75
aI166
aI69
asS'BioID_0636'
p1733
(lp1734
I200
aI82
aI136
aI77
asS'BioID_0631'
p1735
(lp1736
I206
aI74
aI155
aI73
asS'BioID_0630'
p1737
(lp1738
I206
aI75
aI155
aI74
asS'BioID_0633'
p1739
(lp1740
I201
aI73
aI150
aI73
asS'BioID_0632'
p1741
(lp1742
I212
aI86
aI155
aI84
asS'BioID_0639'
p1743
(lp1744
I206
aI93
aI141
aI84
asS'BioID_0638'
p1745
(lp1746
I213
aI59
aI151
aI55
asS'BioID_0529'
p1747
(lp1748
I215
aI107
aI160
aI107
asS'BioID_0528'
p1749
(lp1750
I210
aI110
aI154
aI108
asS'BioID_0521'
p1751
(lp1752
I221
aI106
aI162
aI106
asS'BioID_0520'
p1753
(lp1754
I222
aI105
aI163
aI105
asS'BioID_0523'
p1755
(lp1756
I223
aI103
aI165
aI103
asS'BioID_0522'
p1757
(lp1758
I232
aI109
aI173
aI108
asS'BioID_0525'
p1759
(lp1760
I205
aI114
aI149
aI114
asS'BioID_0524'
p1761
(lp1762
I222
aI106
aI163
aI105
asS'BioID_0527'
p1763
(lp1764
I211
aI114
aI154
aI114
asS'BioID_0526'
p1765
(lp1766
I210
aI111
aI154
aI111
asS'BioID_0550'
p1767
(lp1768
I230
aI114
aI173
aI113
asS'BioID_0551'
p1769
(lp1770
I223
aI114
aI166
aI114
asS'BioID_0129'
p1771
(lp1772
I241
aI103
aI181
aI100
asS'BioID_0552'
p1773
(lp1774
I224
aI114
aI168
aI114
asS'BioID_1181'
p1775
(lp1776
I223
aI61
aI177
aI63
asS'BioID_0553'
p1777
(lp1778
I222
aI117
aI166
aI115
asS'BioID_0554'
p1779
(lp1780
I226
aI116
aI168
aI114
asS'BioID_0227'
p1781
(lp1782
I242
aI118
aI194
aI115
asS'BioID_0224'
p1783
(lp1784
I242
aI113
aI194
aI110
asS'BioID_0557'
p1785
(lp1786
I178
aI194
aI127
aI193
asS'BioID_0121'
p1787
(lp1788
I228
aI130
aI161
aI124
asS'BioID_1189'
p1789
(lp1790
I232
aI76
aI183
aI75
asS'BioID_1467'
p1791
(lp1792
I196
aI61
aI135
aI60
asS'BioID_1466'
p1793
(lp1794
I194
aI59
aI133
aI58
asS'BioID_1465'
p1795
(lp1796
I194
aI61
aI132
aI60
asS'BioID_1464'
p1797
(lp1798
I199
aI63
aI138
aI62
asS'BioID_1463'
p1799
(lp1800
I203
aI62
aI143
aI59
asS'BioID_1462'
p1801
(lp1802
I201
aI61
aI141
aI60
asS'BioID_1461'
p1803
(lp1804
I198
aI60
aI137
aI60
asS'BioID_1460'
p1805
(lp1806
I201
aI60
aI141
aI59
asS'BioID_1469'
p1807
(lp1808
I212
aI59
aI149
aI58
asS'BioID_1468'
p1809
(lp1810
I198
aI63
aI137
aI61
asS'BioID_1261'
p1811
(lp1812
I254
aI80
aI202
aI82
asS'BioID_1260'
p1813
(lp1814
I256
aI81
aI205
aI82
asS'BioID_1263'
p1815
(lp1816
I260
aI78
aI209
aI80
asS'BioID_1262'
p1817
(lp1818
I256
aI77
aI205
aI79
asS'BioID_1265'
p1819
(lp1820
I256
aI70
aI205
aI72
asS'BioID_1264'
p1821
(lp1822
I263
aI79
aI212
aI78
asS'BioID_1267'
p1823
(lp1824
I250
aI68
aI198
aI71
asS'BioID_1266'
p1825
(lp1826
I245
aI72
aI194
aI74
asS'BioID_1269'
p1827
(lp1828
I259
aI73
aI207
aI74
asS'BioID_1268'
p1829
(lp1830
I251
aI68
aI199
aI71
asS'BioID_0020'
p1831
(lp1832
I196
aI130
aI129
aI131
asS'BioID_0021'
p1833
(lp1834
I206
aI135
aI139
aI136
asS'BioID_0022'
p1835
(lp1836
I210
aI139
aI142
aI141
asS'BioID_0023'
p1837
(lp1838
I201
aI125
aI136
aI127
asS'BioID_0024'
p1839
(lp1840
I214
aI141
aI148
aI141
asS'BioID_0025'
p1841
(lp1842
I221
aI130
aI162
aI132
asS'BioID_0026'
p1843
(lp1844
I214
aI131
aI160
aI133
asS'BioID_0027'
p1845
(lp1846
I205
aI107
aI145
aI111
asS'BioID_0028'
p1847
(lp1848
I206
aI128
aI146
aI130
asS'BioID_0029'
p1849
(lp1850
I207
aI115
aI150
aI118
asS'BioID_1005'
p1851
(lp1852
I224
aI95
aI180
aI98
asS'BioID_1004'
p1853
(lp1854
I227
aI95
aI183
aI96
asS'BioID_1007'
p1855
(lp1856
I221
aI97
aI175
aI98
asS'BioID_1006'
p1857
(lp1858
I219
aI95
aI175
aI97
asS'BioID_1001'
p1859
(lp1860
I209
aI96
aI164
aI97
asS'BioID_1000'
p1861
(lp1862
I219
aI95
aI177
aI97
asS'BioID_1003'
p1863
(lp1864
I220
aI89
aI177
aI90
asS'BioID_1002'
p1865
(lp1866
I209
aI105
aI165
aI107
asS'BioID_1009'
p1867
(lp1868
I217
aI89
aI174
aI93
asS'BioID_1008'
p1869
(lp1870
I217
aI93
aI173
aI96
asS'BioID_1395'
p1871
(lp1872
I232
aI117
aI189
aI117
asS'BioID_1394'
p1873
(lp1874
I237
aI117
aI193
aI115
asS'BioID_1397'
p1875
(lp1876
I240
aI79
aI197
aI78
asS'BioID_1396'
p1877
(lp1878
I240
aI68
aI196
aI66
asS'BioID_1391'
p1879
(lp1880
I255
aI114
aI210
aI112
asS'BioID_1390'
p1881
(lp1882
I225
aI114
aI181
aI115
asS'BioID_1393'
p1883
(lp1884
I245
aI111
aI201
aI109
asS'BioID_1392'
p1885
(lp1886
I252
aI117
aI207
aI113
asS'BioID_1399'
p1887
(lp1888
I235
aI84
aI192
aI84
asS'BioID_1398'
p1889
(lp1890
I240
aI80
aI197
aI79
asS'BioID_0284'
p1891
(lp1892
I208
aI95
aI162
aI95
asS'BioID_0285'
p1893
(lp1894
I207
aI93
aI161
aI94
asS'BioID_0286'
p1895
(lp1896
I212
aI87
aI166
aI86
asS'BioID_0287'
p1897
(lp1898
I213
aI92
aI168
aI91
asS'BioID_0280'
p1899
(lp1900
I242
aI122
aI196
aI117
asS'BioID_0281'
p1901
(lp1902
I236
aI119
aI190
aI116
asS'BioID_0282'
p1903
(lp1904
I240
aI122
aI194
aI120
asS'BioID_0283'
p1905
(lp1906
I207
aI67
aI160
aI68
asS'BioID_0288'
p1907
(lp1908
I214
aI93
aI169
aI91
asS'BioID_0289'
p1909
(lp1910
I209
aI92
aI163
aI93
asS'BioID_1139'
p1911
(lp1912
I216
aI98
aI162
aI102
asS'BioID_1138'
p1913
(lp1914
I225
aI94
aI171
aI99
asS'BioID_0736'
p1915
(lp1916
I231
aI123
aI173
aI123
asS'BioID_0737'
p1917
(lp1918
I226
aI131
aI166
aI132
asS'BioID_0730'
p1919
(lp1920
I227
aI126
aI169
aI128
asS'BioID_0731'
p1921
(lp1922
I230
aI128
aI170
aI130
asS'BioID_0732'
p1923
(lp1924
I228
aI128
aI171
aI129
asS'BioID_0733'
p1925
(lp1926
I231
aI128
aI172
aI128
asS'BioID_1131'
p1927
(lp1928
I227
aI102
aI171
aI104
asS'BioID_1130'
p1929
(lp1930
I230
aI99
aI174
aI103
asS'BioID_1133'
p1931
(lp1932
I224
aI103
aI168
aI105
asS'BioID_1132'
p1933
(lp1934
I220
aI102
aI163
aI105
asS'BioID_0738'
p1935
(lp1936
I231
aI134
aI172
aI134
asS'BioID_1134'
p1937
(lp1938
I219
aI103
aI163
aI106
asS'BioID_1137'
p1939
(lp1940
I215
aI96
aI160
aI102
asS'BioID_1136'
p1941
(lp1942
I221
aI98
aI166
aI102
asS'BioID_1489'
p1943
(lp1944
I227
aI105
aI133
aI107
asS'BioID_1488'
p1945
(lp1946
I223
aI75
aI141
aI76
asS'BioID_1481'
p1947
(lp1948
I238
aI54
aI136
aI52
asS'BioID_1480'
p1949
(lp1950
I240
aI70
aI137
aI69
asS'BioID_1483'
p1951
(lp1952
I230
aI36
aI159
aI34
asS'BioID_1482'
p1953
(lp1954
I240
aI37
aI137
aI39
asS'BioID_1485'
p1955
(lp1956
I228
aI37
aI152
aI36
asS'BioID_1484'
p1957
(lp1958
I223
aI37
aI149
aI38
asS'BioID_1487'
p1959
(lp1960
I224
aI79
aI140
aI81
asS'BioID_1486'
p1961
(lp1962
I218
aI78
aI136
aI80
asS'BioID_0697'
p1963
(lp1964
I204
aI122
aI148
aI119
asS'BioID_0872'
p1965
(lp1966
I213
aI133
aI156
aI131
asS'BioID_0695'
p1967
(lp1968
I210
aI122
aI154
aI117
asS'BioID_0608'
p1969
(lp1970
I211
aI111
aI152
aI111
asS'BioID_0609'
p1971
(lp1972
I209
aI85
aI153
aI84
asS'BioID_0358'
p1973
(lp1974
I189
aI43
aI140
aI44
asS'BioID_0359'
p1975
(lp1976
I183
aI52
aI136
aI52
asS'BioID_0600'
p1977
(lp1978
I181
aI65
aI128
aI64
asS'BioID_0353'
p1979
(lp1980
I201
aI78
aI150
aI77
asS'BioID_0350'
p1981
(lp1982
I196
aI74
aI143
aI72
asS'BioID_0603'
p1983
(lp1984
I213
aI86
aI160
aI86
asS'BioID_0604'
p1985
(lp1986
I209
aI85
aI157
aI84
asS'BioID_0357'
p1987
(lp1988
I192
aI76
aI143
aI75
asS'BioID_0606'
p1989
(lp1990
I207
aI83
aI157
aI83
asS'BioID_0355'
p1991
(lp1992
I179
aI72
aI129
aI73
asS'BioID_0875'
p1993
(lp1994
I174
aI103
aI131
aI102
asS'BioID_0874'
p1995
(lp1996
I183
aI92
aI141
aI92
asS'BioID_0756'
p1997
(lp1998
I208
aI121
aI169
aI119
asS'BioID_0973'
p1999
(lp2000
I220
aI85
aI154
aI87
asS'BioID_0970'
p2001
(lp2002
I224
aI112
aI164
aI112
asS'BioID_0755'
p2003
(lp2004
I201
aI113
aI161
aI113
asS'BioID_0752'
p2005
(lp2006
I208
aI130
aI165
aI128
asS'BioID_0977'
p2007
(lp2008
I227
aI97
aI160
aI99
asS'BioID_0750'
p2009
(lp2010
I202
aI124
aI161
aI123
asS'BioID_0751'
p2011
(lp2012
I206
aI126
aI167
aI125
asS'BioID_0051'
p2013
(lp2014
I234
aI95
aI156
aI94
asS'BioID_0518'
p2015
(lp2016
I181
aI129
aI133
aI133
asS'BioID_0519'
p2017
(lp2018
I222
aI100
aI162
aI98
asS'BioID_0050'
p2019
(lp2020
I236
aI85
aI151
aI80
asS'BioID_0514'
p2021
(lp2022
I180
aI128
aI133
aI132
asS'BioID_0515'
p2023
(lp2024
I178
aI130
aI131
aI133
asS'BioID_0516'
p2025
(lp2026
I178
aI130
aI130
aI133
asS'BioID_0517'
p2027
(lp2028
I180
aI130
aI132
aI133
asS'BioID_0510'
p2029
(lp2030
I186
aI131
aI137
aI133
asS'BioID_0511'
p2031
(lp2032
I179
aI130
aI131
aI132
asS'BioID_0512'
p2033
(lp2034
I183
aI129
aI135
aI132
asS'BioID_0513'
p2035
(lp2036
I184
aI129
aI136
aI132
asS'BioID_1059'
p2037
(lp2038
I245
aI117
aI172
aI116
asS'BioID_1500'
p2039
(lp2040
I193
aI60
aI147
aI62
asS'BioID_0058'
p2041
(lp2042
I246
aI74
aI159
aI76
asS'BioID_0192'
p2043
(lp2044
I267
aI119
aI207
aI118
asS'BioID_1503'
p2045
(lp2046
I189
aI59
aI144
aI61
asS'BioID_1056'
p2047
(lp2048
I221
aI95
aI174
aI95
asS'BioID_1505'
p2049
(lp2050
I188
aI60
aI144
aI63
asS'BioID_1054'
p2051
(lp2052
I216
aI94
aI169
aI95
asS'BioID_1507'
p2053
(lp2054
I192
aI66
aI146
aI67
asS'BioID_0096'
p2055
(lp2056
I223
aI55
aI162
aI55
asS'BioID_0069'
p2057
(lp2058
I238
aI91
aI154
aI86
asS'BioID_1254'
p2059
(lp2060
I240
aI67
aI189
aI72
asS'BioID_1255'
p2061
(lp2062
I251
aI81
aI198
aI82
asS'BioID_1256'
p2063
(lp2064
I259
aI74
aI206
aI77
asS'BioID_1257'
p2065
(lp2066
I255
aI73
aI204
aI75
asS'BioID_1250'
p2067
(lp2068
I258
aI81
aI207
aI82
asS'BioID_1251'
p2069
(lp2070
I258
aI79
aI207
aI81
asS'BioID_1252'
p2071
(lp2072
I259
aI73
aI208
aI75
asS'BioID_1253'
p2073
(lp2074
I248
aI75
aI196
aI77
asS'BioID_1258'
p2075
(lp2076
I257
aI83
aI203
aI86
asS'BioID_1259'
p2077
(lp2078
I254
aI73
aI204
aI75
asS'BioID_0037'
p2079
(lp2080
I219
aI142
aI166
aI144
asS'BioID_1039'
p2081
(lp2082
I188
aI69
aI145
aI67
asS'BioID_0035'
p2083
(lp2084
I207
aI137
aI151
aI139
asS'BioID_0034'
p2085
(lp2086
I215
aI139
aI159
aI141
asS'BioID_0033'
p2087
(lp2088
I219
aI140
aI161
aI143
asS'BioID_0032'
p2089
(lp2090
I205
aI123
aI147
aI126
asS'BioID_0031'
p2091
(lp2092
I212
aI122
aI155
aI124
asS'BioID_0030'
p2093
(lp2094
I209
aI117
aI152
aI121
asS'BioID_1030'
p2095
(lp2096
I196
aI48
aI139
aI46
asS'BioID_1031'
p2097
(lp2098
I196
aI51
aI141
aI48
asS'BioID_1032'
p2099
(lp2100
I188
aI63
aI148
aI62
asS'BioID_1033'
p2101
(lp2102
I198
aI42
aI141
aI39
asS'BioID_1034'
p2103
(lp2104
I181
aI62
aI138
aI61
asS'BioID_1035'
p2105
(lp2106
I187
aI63
aI144
aI61
asS'BioID_0039'
p2107
(lp2108
I203
aI133
aI147
aI136
asS'BioID_1037'
p2109
(lp2110
I183
aI68
aI140
aI67
asS'BioID_0729'
p2111
(lp2112
I228
aI126
aI169
aI126
asS'BioID_0728'
p2113
(lp2114
I231
aI124
aI172
aI123
asS'BioID_0723'
p2115
(lp2116
I224
aI126
aI166
aI125
asS'BioID_0722'
p2117
(lp2118
I218
aI122
aI160
aI126
asS'BioID_0721'
p2119
(lp2120
I223
aI124
aI163
aI125
asS'BioID_0720'
p2121
(lp2122
I222
aI123
aI164
aI123
asS'BioID_0727'
p2123
(lp2124
I230
aI131
aI170
aI129
asS'BioID_0726'
p2125
(lp2126
I228
aI133
aI168
aI132
asS'BioID_0725'
p2127
(lp2128
I230
aI135
aI169
aI133
asS'BioID_0724'
p2129
(lp2130
I266
aI135
aI209
aI130
asS'BioID_1108'
p2131
(lp2132
I229
aI80
aI178
aI84
asS'BioID_1109'
p2133
(lp2134
I233
aI78
aI183
aI83
asS'BioID_1104'
p2135
(lp2136
I230
aI78
aI180
aI83
asS'BioID_1105'
p2137
(lp2138
I233
aI79
aI182
aI84
asS'BioID_1106'
p2139
(lp2140
I230
aI76
aI179
aI82
asS'BioID_1107'
p2141
(lp2142
I231
aI78
aI181
aI83
asS'BioID_1100'
p2143
(lp2144
I234
aI75
aI184
aI81
asS'BioID_1101'
p2145
(lp2146
I230
aI75
aI179
aI81
asS'BioID_1102'
p2147
(lp2148
I233
aI77
aI182
aI83
asS'BioID_1103'
p2149
(lp2150
I230
aI77
aI180
aI83
asS'BioID_0349'
p2151
(lp2152
I204
aI55
aI149
aI54
asS'BioID_0348'
p2153
(lp2154
I176
aI116
aI122
aI114
asS'BioID_0619'
p2155
(lp2156
I207
aI80
aI150
aI79
asS'BioID_0618'
p2157
(lp2158
I208
aI83
aI152
aI82
asS'BioID_0617'
p2159
(lp2160
I207
aI85
aI150
aI84
asS'BioID_0616'
p2161
(lp2162
I210
aI90
aI152
aI89
asS'BioID_0615'
p2163
(lp2164
I204
aI97
aI145
aI97
asS'BioID_0342'
p2165
(lp2166
I173
aI124
aI129
aI120
asS'BioID_0613'
p2167
(lp2168
I212
aI86
aI155
aI84
asS'BioID_0612'
p2169
(lp2170
I198
aI95
aI141
aI94
asS'BioID_0347'
p2171
(lp2172
I175
aI118
aI122
aI117
asS'BioID_0610'
p2173
(lp2174
I206
aI99
aI149
aI98
asS'BioID_0299'
p2175
(lp2176
I199
aI89
aI156
aI87
asS'BioID_0298'
p2177
(lp2178
I200
aI91
aI159
aI88
asS'BioID_0293'
p2179
(lp2180
I237
aI87
aI195
aI86
asS'BioID_0292'
p2181
(lp2182
I237
aI92
aI194
aI93
asS'BioID_0291'
p2183
(lp2184
I237
aI96
aI196
aI95
asS'BioID_0290'
p2185
(lp2186
I220
aI89
aI175
aI86
asS'BioID_0297'
p2187
(lp2188
I223
aI92
aI181
aI92
asS'BioID_0296'
p2189
(lp2190
I228
aI88
aI187
aI86
asS'BioID_0295'
p2191
(lp2192
I226
aI87
aI183
aI87
asS'BioID_0294'
p2193
(lp2194
I228
aI90
aI185
aI90
asS'BioID_0503'
p2195
(lp2196
I195
aI129
aI147
aI132
asS'BioID_0502'
p2197
(lp2198
I185
aI132
aI137
aI135
asS'BioID_0501'
p2199
(lp2200
I190
aI132
aI141
aI134
asS'BioID_0500'
p2201
(lp2202
I183
aI131
aI134
aI133
asS'BioID_0507'
p2203
(lp2204
I188
aI130
aI140
aI133
asS'BioID_0506'
p2205
(lp2206
I186
aI132
aI137
aI135
asS'BioID_0505'
p2207
(lp2208
I184
aI132
aI134
aI134
asS'BioID_0504'
p2209
(lp2210
I186
aI131
aI139
aI134
asS'BioID_0509'
p2211
(lp2212
I185
aI130
aI136
aI133
asS'BioID_0508'
p2213
(lp2214
I187
aI129
aI139
aI133
asS'BioID_1113'
p2215
(lp2216
I231
aI77
aI181
aI82
asS'BioID_1112'
p2217
(lp2218
I233
aI78
aI184
aI83
asS'BioID_0394'
p2219
(lp2220
I171
aI91
aI127
aI90
asS'BioID_0149'
p2221
(lp2222
I196
aI99
aI145
aI98
asS'BioID_0148'
p2223
(lp2224
I230
aI118
aI179
aI118
asS'BioID_0262'
p2225
(lp2226
I244
aI115
aI200
aI120
asS'BioID_1249'
p2227
(lp2228
I257
aI82
aI207
aI83
asS'BioID_1248'
p2229
(lp2230
I250
aI85
aI198
aI86
asS'BioID_1243'
p2231
(lp2232
I284
aI73
aI229
aI73
asS'BioID_1242'
p2233
(lp2234
I214
aI73
aI176
aI71
asS'BioID_1241'
p2235
(lp2236
I213
aI72
aI175
aI73
asS'BioID_1240'
p2237
(lp2238
I209
aI72
aI172
aI73
asS'BioID_1247'
p2239
(lp2240
I244
aI87
aI194
aI90
asS'BioID_1246'
p2241
(lp2242
I261
aI81
aI211
aI82
asS'BioID_1245'
p2243
(lp2244
I255
aI78
aI209
aI80
asS'BioID_1244'
p2245
(lp2246
I252
aI69
aI209
aI70
asS'BioID_0764'
p2247
(lp2248
I207
aI117
aI166
aI117
asS'BioID_1118'
p2249
(lp2250
I232
aI79
aI182
aI84
asS'BioID_1029'
p2251
(lp2252
I150
aI116
aI104
aI115
asS'BioID_1028'
p2253
(lp2254
I151
aI112
aI104
aI111
asS'BioID_1027'
p2255
(lp2256
I153
aI113
aI106
aI112
asS'BioID_1026'
p2257
(lp2258
I237
aI136
aI144
aI131
asS'BioID_1025'
p2259
(lp2260
I240
aI141
aI149
aI135
asS'BioID_1024'
p2261
(lp2262
I241
aI150
aI151
aI145
asS'BioID_1023'
p2263
(lp2264
I231
aI130
aI141
aI128
asS'BioID_1022'
p2265
(lp2266
I227
aI106
aI137
aI103
asS'BioID_1021'
p2267
(lp2268
I237
aI137
aI149
aI132
asS'BioID_1020'
p2269
(lp2270
I245
aI153
aI157
aI147
asS'BioID_0990'
p2271
(lp2272
I226
aI92
aI183
aI96
asS'BioID_0991'
p2273
(lp2274
I240
aI100
aI195
aI102
asS'BioID_0992'
p2275
(lp2276
I178
aI105
aI138
aI107
asS'BioID_0993'
p2277
(lp2278
I228
aI137
aI159
aI139
asS'BioID_0994'
p2279
(lp2280
I221
aI99
aI176
aI102
asS'BioID_0995'
p2281
(lp2282
I218
aI94
aI172
aI97
asS'BioID_0996'
p2283
(lp2284
I217
aI97
aI173
aI98
asS'BioID_0997'
p2285
(lp2286
I212
aI94
aI169
aI98
asS'BioID_0998'
p2287
(lp2288
I211
aI90
aI169
aI93
asS'BioID_0999'
p2289
(lp2290
I220
aI100
aI176
aI101
asS'BioID_0978'
p2291
(lp2292
I211
aI107
aI165
aI109
asS'BioID_0979'
p2293
(lp2294
I205
aI97
aI160
aI98
asS'BioID_0758'
p2295
(lp2296
I213
aI120
aI172
aI118
asS'BioID_0759'
p2297
(lp2298
I208
aI118
aI166
aI117
asS'BioID_0972'
p2299
(lp2300
I221
aI107
aI164
aI105
asS'BioID_0757'
p2301
(lp2302
I207
aI119
aI166
aI118
asS'BioID_0754'
p2303
(lp2304
I184
aI97
aI141
aI102
asS'BioID_0971'
p2305
(lp2306
I222
aI101
aI165
aI101
asS'BioID_0976'
p2307
(lp2308
I208
aI113
aI166
aI113
asS'BioID_0753'
p2309
(lp2310
I201
aI109
aI162
aI107
asS'BioID_0974'
p2311
(lp2312
I230
aI86
aI183
aI88
asS'BioID_0975'
p2313
(lp2314
I217
aI103
aI176
aI105
asS'BioID_0198'
p2315
(lp2316
I245
aI112
aI183
aI110
asS'BioID_0199'
p2317
(lp2318
I231
aI108
aI170
aI106
asS'BioID_1111'
p2319
(lp2320
I233
aI77
aI183
aI82
asS'BioID_1110'
p2321
(lp2322
I235
aI78
aI185
aI84
asS'BioID_1117'
p2323
(lp2324
I231
aI81
aI181
aI87
asS'BioID_1116'
p2325
(lp2326
I232
aI81
aI182
aI85
asS'BioID_1115'
p2327
(lp2328
I233
aI78
aI184
aI84
asS'BioID_1114'
p2329
(lp2330
I230
aI77
aI179
aI82
asS'BioID_0190'
p2331
(lp2332
I223
aI149
aI154
aI146
asS'BioID_0191'
p2333
(lp2334
I223
aI141
aI155
aI138
asS'BioID_1119'
p2335
(lp2336
I232
aI76
aI183
aI82
asS'BioID_0193'
p2337
(lp2338
I245
aI116
aI181
aI116
asS'BioID_0194'
p2339
(lp2340
I257
aI112
aI196
aI110
asS'BioID_0195'
p2341
(lp2342
I243
aI108
aI182
aI107
asS'BioID_0196'
p2343
(lp2344
I242
aI113
aI181
aI113
asS'BioID_0197'
p2345
(lp2346
I247
aI114
aI186
aI113
asS'BioID_0378'
p2347
(lp2348
I231
aI115
aI184
aI115
asS'BioID_0379'
p2349
(lp2350
I217
aI110
aI170
aI112
asS'BioID_0374'
p2351
(lp2352
I212
aI53
aI154
aI52
asS'BioID_0375'
p2353
(lp2354
I236
aI25
aI157
aI24
asS'BioID_0376'
p2355
(lp2356
I230
aI47
aI151
aI47
asS'BioID_0377'
p2357
(lp2358
I237
aI109
aI190
aI112
asS'BioID_0370'
p2359
(lp2360
I188
aI61
aI139
aI61
asS'BioID_0371'
p2361
(lp2362
I179
aI56
aI128
aI56
asS'BioID_0372'
p2363
(lp2364
I211
aI82
aI143
aI82
asS'BioID_0373'
p2365
(lp2366
I204
aI81
aI142
aI82
asS'BioID_0576'
p2367
(lp2368
I205
aI76
aI158
aI73
asS'BioID_0577'
p2369
(lp2370
I203
aI83
aI156
aI80
asS'BioID_0574'
p2371
(lp2372
I207
aI87
aI160
aI84
asS'BioID_0575'
p2373
(lp2374
I205
aI84
aI158
aI80
asS'BioID_0572'
p2375
(lp2376
I207
aI81
aI160
aI77
asS'BioID_0573'
p2377
(lp2378
I207
aI68
aI163
aI67
asS'BioID_0570'
p2379
(lp2380
I206
aI83
aI159
aI80
asS'BioID_0571'
p2381
(lp2382
I207
aI79
aI160
aI76
asS'BioID_0578'
p2383
(lp2384
I204
aI81
aI156
aI79
asS'BioID_0579'
p2385
(lp2386
I213
aI86
aI166
aI84
asS'BioID_0408'
p2387
(lp2388
I160
aI98
aI114
aI100
asS'BioID_0409'
p2389
(lp2390
I159
aI92
aI113
aI93
asS'BioID_0769'
p2391
(lp2392
I211
aI119
aI171
aI119
asS'BioID_0402'
p2393
(lp2394
I171
aI94
aI126
aI94
asS'BioID_0403'
p2395
(lp2396
I166
aI90
aI121
aI90
asS'BioID_0400'
p2397
(lp2398
I164
aI100
aI119
aI98
asS'BioID_0401'
p2399
(lp2400
I160
aI93
aI114
aI93
asS'BioID_0406'
p2401
(lp2402
I163
aI91
aI118
aI91
asS'BioID_0407'
p2403
(lp2404
I163
aI98
aI116
aI99
asS'BioID_0404'
p2405
(lp2406
I167
aI90
aI121
aI89
asS'BioID_0405'
p2407
(lp2408
I161
aI86
aI117
aI86
asS'BioID_0327'
p2409
(lp2410
I185
aI117
aI141
aI116
asS'BioID_0326'
p2411
(lp2412
I184
aI116
aI143
aI115
asS'BioID_0853'
p2413
(lp2414
I211
aI88
aI154
aI86
asS'BioID_0324'
p2415
(lp2416
I169
aI111
aI125
aI113
asS'BioID_0855'
p2417
(lp2418
I205
aI83
aI165
aI82
asS'BioID_0854'
p2419
(lp2420
I226
aI92
aI170
aI88
asS'BioID_0857'
p2421
(lp2422
I210
aI145
aI158
aI144
asS'BioID_0856'
p2423
(lp2424
I223
aI103
aI161
aI101
asS'BioID_0734'
p2425
(lp2426
I229
aI125
aI170
aI126
asS'BioID_0735'
p2427
(lp2428
I230
aI128
aI170
aI129
asS'BioID_1135'
p2429
(lp2430
I217
aI102
aI161
aI105
asS'BioID_0817'
p2431
(lp2432
I208
aI92
aI163
aI89
asS'BioID_0739'
p2433
(lp2434
I231
aI132
aI173
aI133
asS'BioID_0816'
p2435
(lp2436
I208
aI95
aI157
aI93
asS'BioID_1238'
p2437
(lp2438
I217
aI74
aI179
aI74
asS'BioID_1239'
p2439
(lp2440
I214
aI75
aI176
aI76
asS'BioID_1236'
p2441
(lp2442
I214
aI66
aI177
aI65
asS'BioID_1237'
p2443
(lp2444
I207
aI70
aI170
aI73
asS'BioID_1234'
p2445
(lp2446
I212
aI76
aI174
aI74
asS'BioID_1235'
p2447
(lp2448
I213
aI77
aI175
aI76
asS'BioID_1232'
p2449
(lp2450
I212
aI72
aI174
aI73
asS'BioID_1233'
p2451
(lp2452
I206
aI72
aI167
aI75
asS'BioID_1230'
p2453
(lp2454
I213
aI71
aI176
aI71
asS'BioID_1231'
p2455
(lp2456
I210
aI75
aI172
aI77
asS'BioID_1342'
p2457
(lp2458
I228
aI69
aI192
aI69
asS'BioID_1343'
p2459
(lp2460
I227
aI68
aI192
aI69
asS'BioID_1340'
p2461
(lp2462
I222
aI71
aI187
aI72
asS'BioID_1341'
p2463
(lp2464
I224
aI80
aI185
aI80
asS'BioID_1346'
p2465
(lp2466
I232
aI71
aI196
aI69
asS'BioID_1347'
p2467
(lp2468
I230
aI105
aI178
aI106
asS'BioID_1344'
p2469
(lp2470
I225
aI72
aI191
aI72
asS'BioID_1345'
p2471
(lp2472
I227
aI87
aI186
aI87
asS'BioID_1348'
p2473
(lp2474
I224
aI83
aI178
aI83
asS'BioID_1349'
p2475
(lp2476
I222
aI83
aI175
aI83
asS'BioID_0987'
p2477
(lp2478
I229
aI90
aI185
aI93
asS'BioID_0986'
p2479
(lp2480
I211
aI102
aI169
aI105
asS'BioID_0985'
p2481
(lp2482
I213
aI102
aI172
aI103
asS'BioID_0984'
p2483
(lp2484
I219
aI103
aI178
aI103
asS'BioID_0983'
p2485
(lp2486
I218
aI101
aI176
aI102
asS'BioID_0982'
p2487
(lp2488
I219
aI104
aI179
aI106
asS'BioID_0981'
p2489
(lp2490
I215
aI98
aI171
aI99
asS'BioID_0980'
p2491
(lp2492
I206
aI99
aI162
aI99
asS'BioID_0989'
p2493
(lp2494
I235
aI97
aI190
aI101
asS'BioID_0988'
p2495
(lp2496
I242
aI100
aI195
aI103
asS'BioID_0969'
p2497
(lp2498
I224
aI98
aI169
aI98
asS'BioID_0968'
p2499
(lp2500
I229
aI104
aI173
aI101
asS'BioID_0749'
p2501
(lp2502
I202
aI124
aI162
aI123
asS'BioID_0748'
p2503
(lp2504
I206
aI115
aI163
aI113
asS'BioID_0745'
p2505
(lp2506
I204
aI115
aI162
aI113
asS'BioID_0960'
p2507
(lp2508
I229
aI116
aI174
aI114
asS'BioID_0963'
p2509
(lp2510
I231
aI106
aI187
aI106
asS'BioID_0746'
p2511
(lp2512
I207
aI116
aI164
aI113
asS'BioID_0741'
p2513
(lp2514
I212
aI128
aI170
aI127
asS'BioID_0740'
p2515
(lp2516
I232
aI133
aI173
aI133
asS'BioID_0743'
p2517
(lp2518
I200
aI128
aI156
aI126
asS'BioID_0966'
p2519
(lp2520
I231
aI114
aI170
aI113
asS'BioID_1166'
p2521
(lp2522
I233
aI89
aI172
aI91
asS'BioID_1167'
p2523
(lp2524
I234
aI82
aI176
aI84
asS'BioID_1164'
p2525
(lp2526
I229
aI71
aI171
aI69
asS'BioID_1165'
p2527
(lp2528
I240
aI80
aI179
aI80
asS'BioID_1162'
p2529
(lp2530
I223
aI91
aI162
aI92
asS'BioID_1163'
p2531
(lp2532
I235
aI46
aI181
aI45
asS'BioID_0189'
p2533
(lp2534
I223
aI145
aI154
aI143
asS'BioID_0188'
p2535
(lp2536
I229
aI148
aI161
aI145
asS'BioID_0187'
p2537
(lp2538
I225
aI179
aI152
aI180
asS'BioID_0186'
p2539
(lp2540
I238
aI132
aI171
aI128
asS'BioID_0185'
p2541
(lp2542
I236
aI132
aI169
aI127
asS'BioID_0184'
p2543
(lp2544
I233
aI131
aI166
aI128
asS'BioID_0183'
p2545
(lp2546
I243
aI131
aI176
aI128
asS'BioID_0182'
p2547
(lp2548
I241
aI132
aI175
aI130
asS'BioID_0181'
p2549
(lp2550
I225
aI125
aI159
aI125
asS'BioID_0180'
p2551
(lp2552
I292
aI119
aI230
aI115
asS'BioID_0363'
p2553
(lp2554
I171
aI70
aI126
aI73
asS'BioID_0362'
p2555
(lp2556
I185
aI68
aI138
aI69
asS'BioID_0361'
p2557
(lp2558
I191
aI71
aI145
aI72
asS'BioID_0360'
p2559
(lp2560
I180
aI52
aI133
aI52
asS'BioID_0367'
p2561
(lp2562
I163
aI44
aI111
aI44
asS'BioID_0366'
p2563
(lp2564
I171
aI47
aI116
aI47
asS'BioID_0365'
p2565
(lp2566
I171
aI65
aI117
aI65
asS'BioID_0364'
p2567
(lp2568
I181
aI81
aI126
aI82
asS'BioID_0369'
p2569
(lp2570
I172
aI71
aI129
aI73
asS'BioID_0368'
p2571
(lp2572
I171
aI71
aI126
aI73
asS'BioID_0352'
p2573
(lp2574
I197
aI75
aI147
aI74
asS'BioID_0601'
p2575
(lp2576
I179
aI60
aI126
aI58
asS'BioID_0602'
p2577
(lp2578
I179
aI54
aI126
aI51
asS'BioID_0565'
p2579
(lp2580
I219
aI51
aI146
aI49
asS'BioID_0564'
p2581
(lp2582
I224
aI49
aI153
aI44
asS'BioID_0567'
p2583
(lp2584
I212
aI71
aI168
aI69
asS'BioID_0566'
p2585
(lp2586
I225
aI58
aI150
aI56
asS'BioID_0561'
p2587
(lp2588
I210
aI74
aI167
aI72
asS'BioID_0560'
p2589
(lp2590
I174
aI123
aI120
aI121
asS'BioID_0563'
p2591
(lp2592
I209
aI80
aI164
aI76
asS'BioID_0562'
p2593
(lp2594
I205
aI74
aI157
aI72
asS'BioID_0356'
p2595
(lp2596
I182
aI72
aI132
aI72
asS'BioID_0569'
p2597
(lp2598
I208
aI75
aI162
aI73
asS'BioID_0568'
p2599
(lp2600
I204
aI66
aI159
aI65
asS'BioID_0605'
p2601
(lp2602
I201
aI78
aI152
aI78
asS'BioID_0354'
p2603
(lp2604
I192
aI73
aI143
aI71
asS'BioID_0607'
p2605
(lp2606
I210
aI97
aI157
aI96
asS'BioID_0419'
p2607
(lp2608
I182
aI124
aI132
aI121
asS'BioID_0418'
p2609
(lp2610
I167
aI137
aI120
aI135
asS'BioID_0411'
p2611
(lp2612
I168
aI100
aI124
aI99
asS'BioID_0410'
p2613
(lp2614
I157
aI87
aI112
aI88
asS'BioID_0413'
p2615
(lp2616
I169
aI98
aI125
aI97
asS'BioID_0412'
p2617
(lp2618
I162
aI104
aI118
aI103
asS'BioID_0415'
p2619
(lp2620
I161
aI96
aI117
aI96
asS'BioID_0414'
p2621
(lp2622
I161
aI94
aI118
aI94
asS'BioID_0417'
p2623
(lp2624
I164
aI89
aI122
aI89
asS'BioID_0416'
p2625
(lp2626
I155
aI97
aI113
aI97
asS'BioID_1071'
p2627
(lp2628
I216
aI79
aI175
aI80
asS'BioID_0806'
p2629
(lp2630
I176
aI99
aI133
aI101
asS'BioID_0929'
p2631
(lp2632
I242
aI109
aI182
aI106
asS'BioID_1229'
p2633
(lp2634
I208
aI74
aI171
aI74
asS'BioID_1228'
p2635
(lp2636
I214
aI76
aI176
aI77
asS'BioID_1225'
p2637
(lp2638
I212
aI68
aI174
aI69
asS'BioID_1224'
p2639
(lp2640
I209
aI73
aI172
aI73
asS'BioID_1227'
p2641
(lp2642
I209
aI73
aI172
aI74
asS'BioID_1226'
p2643
(lp2644
I210
aI73
aI173
aI74
asS'BioID_1221'
p2645
(lp2646
I210
aI73
aI172
aI74
asS'BioID_1220'
p2647
(lp2648
I216
aI60
aI180
aI61
asS'BioID_1223'
p2649
(lp2650
I209
aI72
aI172
aI73
asS'BioID_1222'
p2651
(lp2652
I210
aI70
aI172
aI71
asS'BioID_1148'
p2653
(lp2654
I229
aI92
aI171
aI95
asS'BioID_1149'
p2655
(lp2656
I225
aI94
aI166
aI98
asS'BioID_0941'
p2657
(lp2658
I220
aI113
aI159
aI110
asS'BioID_1351'
p2659
(lp2660
I229
aI84
aI183
aI83
asS'BioID_1350'
p2661
(lp2662
I222
aI85
aI174
aI85
asS'BioID_1353'
p2663
(lp2664
I230
aI67
aI191
aI67
asS'BioID_1352'
p2665
(lp2666
I228
aI64
aI193
aI64
asS'BioID_1355'
p2667
(lp2668
I227
aI87
aI187
aI86
asS'BioID_1354'
p2669
(lp2670
I229
aI77
aI187
aI77
asS'BioID_1357'
p2671
(lp2672
I227
aI73
aI185
aI76
asS'BioID_1356'
p2673
(lp2674
I229
aI70
aI187
aI72
asS'BioID_1359'
p2675
(lp2676
I259
aI99
aI203
aI97
asS'BioID_1358'
p2677
(lp2678
I225
aI69
aI184
aI70
asS'BioID_0946'
p2679
(lp2680
I230
aI119
aI181
aI119
asS'BioID_0761'
p2681
(lp2682
I206
aI121
aI168
aI119
asS'BioID_0760'
p2683
(lp2684
I209
aI120
aI167
aI118
asS'BioID_1142'
p2685
(lp2686
I221
aI100
aI163
aI104
asS'BioID_0770'
p2687
(lp2688
I209
aI119
aI169
aI119
asS'BioID_0771'
p2689
(lp2690
I209
aI120
aI167
aI117
asS'BioID_0772'
p2691
(lp2692
I213
aI119
aI169
aI118
asS'BioID_0773'
p2693
(lp2694
I209
aI117
aI170
aI117
asS'BioID_0774'
p2695
(lp2696
I210
aI118
aI169
aI117
asS'BioID_0959'
p2697
(lp2698
I226
aI119
aI172
aI116
asS'BioID_0776'
p2699
(lp2700
I211
aI119
aI170
aI118
asS'BioID_0777'
p2701
(lp2702
I209
aI120
aI169
aI120
asS'BioID_0954'
p2703
(lp2704
I234
aI115
aI168
aI115
asS'BioID_0955'
p2705
(lp2706
I249
aI129
aI185
aI125
asS'BioID_0956'
p2707
(lp2708
I242
aI134
aI175
aI133
asS'BioID_0957'
p2709
(lp2710
I232
aI133
aI165
aI130
asS'BioID_0950'
p2711
(lp2712
I239
aI115
aI173
aI113
asS'BioID_0951'
p2713
(lp2714
I231
aI65
aI178
aI64
asS'BioID_0952'
p2715
(lp2716
I246
aI118
aI179
aI115
asS'BioID_0953'
p2717
(lp2718
I236
aI114
aI169
aI113
asS'BioID_1175'
p2719
(lp2720
I222
aI69
aI175
aI72
asS'BioID_0173'
p2721
(lp2722
I251
aI62
aI165
aI62
asS'BioID_0170'
p2723
(lp2724
I259
aI56
aI177
aI53
asS'BioID_1176'
p2725
(lp2726
I221
aI70
aI174
aI73
asS'BioID_1171'
p2727
(lp2728
I235
aI99
aI168
aI100
asS'BioID_1170'
p2729
(lp2730
I240
aI79
aI176
aI79
asS'BioID_0174'
p2731
(lp2732
I249
aI57
aI162
aI56
asS'BioID_1172'
p2733
(lp2734
I230
aI95
aI165
aI94
asS'BioID_0178'
p2735
(lp2736
I241
aI46
aI155
aI45
asS'BioID_1147'
p2737
(lp2738
I215
aI104
aI159
aI109
asS'BioID_1179'
p2739
(lp2740
I225
aI62
aI177
aI65
asS'BioID_1178'
p2741
(lp2742
I226
aI67
aI180
aI69
asS'BioID_0888'
p2743
(lp2744
I213
aI110
aI170
aI108
asS'BioID_0889'
p2745
(lp2746
I209
aI105
aI167
aI106
asS'BioID_0886'
p2747
(lp2748
I213
aI119
aI171
aI119
asS'BioID_0887'
p2749
(lp2750
I209
aI109
aI167
aI110
asS'BioID_0884'
p2751
(lp2752
I212
aI114
aI170
aI113
asS'BioID_0885'
p2753
(lp2754
I212
aI104
aI170
aI106
asS'BioID_0882'
p2755
(lp2756
I209
aI109
aI167
aI110
asS'BioID_0883'
p2757
(lp2758
I207
aI101
aI166
aI102
asS'BioID_0880'
p2759
(lp2760
I208
aI105
aI166
aI104
asS'BioID_0881'
p2761
(lp2762
I211
aI103
aI170
aI102
asS'BioID_0316'
p2763
(lp2764
I226
aI92
aI146
aI91
asS'BioID_0317'
p2765
(lp2766
I231
aI100
aI151
aI99
asS'BioID_0314'
p2767
(lp2768
I238
aI81
aI156
aI79
asS'BioID_0315'
p2769
(lp2770
I237
aI85
aI157
aI84
asS'BioID_0312'
p2771
(lp2772
I223
aI75
aI143
aI73
asS'BioID_0313'
p2773
(lp2774
I236
aI74
aI156
aI72
asS'BioID_0310'
p2775
(lp2776
I241
aI124
aI157
aI124
asS'BioID_0311'
p2777
(lp2778
I226
aI54
aI150
aI54
asS'BioID_0318'
p2779
(lp2780
I239
aI89
aI153
aI87
asS'BioID_0319'
p2781
(lp2782
I238
aI84
aI152
aI82
asS'BioID_0086'
p2783
(lp2784
I229
aI127
aI147
aI134
asS'BioID_0087'
p2785
(lp2786
I240
aI131
aI157
aI136
asS'BioID_0084'
p2787
(lp2788
I233
aI129
aI150
aI135
asS'BioID_0085'
p2789
(lp2790
I234
aI134
aI151
aI139
asS'BioID_0082'
p2791
(lp2792
I240
aI134
aI156
aI142
asS'BioID_0083'
p2793
(lp2794
I228
aI122
aI145
aI128
asS'BioID_0080'
p2795
(lp2796
I234
aI120
aI149
aI127
asS'BioID_0081'
p2797
(lp2798
I234
aI122
aI150
aI126
asS'BioID_0088'
p2799
(lp2800
I236
aI135
aI154
aI142
asS'BioID_0089'
p2801
(lp2802
I230
aI123
aI145
aI128
asS'BioID_0558'
p2803
(lp2804
I174
aI156
aI129
aI156
asS'BioID_0559'
p2805
(lp2806
I174
aI163
aI129
aI161
asS'BioID_0228'
p2807
(lp2808
I242
aI117
aI194
aI114
asS'BioID_0229'
p2809
(lp2810
I243
aI124
aI195
aI121
asS'BioID_0222'
p2811
(lp2812
I239
aI113
aI192
aI111
asS'BioID_0223'
p2813
(lp2814
I237
aI113
aI189
aI110
asS'BioID_0220'
p2815
(lp2816
I252
aI128
aI190
aI127
asS'BioID_0221'
p2817
(lp2818
I303
aI98
aI258
aI93
asS'BioID_0226'
p2819
(lp2820
I241
aI126
aI192
aI124
asS'BioID_0555'
p2821
(lp2822
I219
aI114
aI164
aI113
asS'BioID_0556'
p2823
(lp2824
I208
aI127
aI167
aI127
asS'BioID_0225'
p2825
(lp2826
I240
aI115
aI193
aI112
asS'BioID_0798'
p2827
(lp2828
I176
aI99
aI133
aI100
asS'BioID_0799'
p2829
(lp2830
I175
aI96
aI132
aI98
asS'BioID_0792'
p2831
(lp2832
I179
aI94
aI136
aI96
asS'BioID_0793'
p2833
(lp2834
I182
aI97
aI137
aI97
asS'BioID_0790'
p2835
(lp2836
I186
aI95
aI142
aI97
asS'BioID_0791'
p2837
(lp2838
I188
aI93
aI144
aI94
asS'BioID_0796'
p2839
(lp2840
I180
aI98
aI136
aI99
asS'BioID_0797'
p2841
(lp2842
I175
aI98
aI130
aI99
asS'BioID_0794'
p2843
(lp2844
I181
aI97
aI138
aI98
asS'BioID_0795'
p2845
(lp2846
I179
aI95
aI137
aI97
asS'BioID_0428'
p2847
(lp2848
I167
aI110
aI112
aI110
asS'BioID_0429'
p2849
(lp2850
I183
aI112
aI125
aI110
asS'BioID_0424'
p2851
(lp2852
I174
aI118
aI123
aI115
asS'BioID_0425'
p2853
(lp2854
I184
aI113
aI133
aI109
asS'BioID_0426'
p2855
(lp2856
I192
aI113
aI139
aI109
asS'BioID_0427'
p2857
(lp2858
I163
aI135
aI110
aI127
asS'BioID_0420'
p2859
(lp2860
I187
aI120
aI137
aI117
asS'BioID_0421'
p2861
(lp2862
I174
aI121
aI123
aI117
asS'BioID_0422'
p2863
(lp2864
I180
aI122
aI128
aI118
asS'BioID_0423'
p2865
(lp2866
I175
aI120
aI123
aI116
asS'BioID_1042'
p2867
(lp2868
I187
aI65
aI143
aI64
asS'BioID_0742'
p2869
(lp2870
I185
aI121
aI144
aI121
asS'BioID_1045'
p2871
(lp2872
I188
aI75
aI142
aI74
asS'BioID_1044'
p2873
(lp2874
I190
aI74
aI142
aI73
asS'BioID_1047'
p2875
(lp2876
I190
aI74
aI145
aI73
asS'BioID_1210'
p2877
(lp2878
I223
aI60
aI177
aI60
asS'BioID_1211'
p2879
(lp2880
I214
aI55
aI170
aI58
asS'BioID_1212'
p2881
(lp2882
I219
aI62
aI170
aI64
asS'BioID_1213'
p2883
(lp2884
I218
aI55
aI172
aI59
asS'BioID_1214'
p2885
(lp2886
I218
aI68
aI179
aI69
asS'BioID_1215'
p2887
(lp2888
I216
aI68
aI179
aI71
asS'BioID_1216'
p2889
(lp2890
I214
aI71
aI175
aI73
asS'BioID_1217'
p2891
(lp2892
I212
aI72
aI173
aI74
asS'BioID_1218'
p2893
(lp2894
I212
aI70
aI174
aI73
asS'BioID_1219'
p2895
(lp2896
I211
aI70
aI172
aI72
asS'BioID_0877'
p2897
(lp2898
I194
aI102
aI152
aI103
asS'BioID_1364'
p2899
(lp2900
I237
aI95
aI179
aI95
asS'BioID_1365'
p2901
(lp2902
I233
aI85
aI175
aI85
asS'BioID_1366'
p2903
(lp2904
I228
aI96
aI173
aI98
asS'BioID_1367'
p2905
(lp2906
I229
aI95
aI175
aI95
asS'BioID_1360'
p2907
(lp2908
I233
aI98
aI175
aI99
asS'BioID_1361'
p2909
(lp2910
I232
aI103
aI175
aI104
asS'BioID_1362'
p2911
(lp2912
I235
aI97
aI181
aI98
asS'BioID_1363'
p2913
(lp2914
I239
aI94
aI184
aI95
asS'BioID_1368'
p2915
(lp2916
I234
aI96
aI179
aI95
asS'BioID_1369'
p2917
(lp2918
I231
aI102
aI177
aI102
asS'BioID_0876'
p2919
(lp2920
I197
aI104
aI153
aI105
asS'BioID_0767'
p2921
(lp2922
I202
aI119
aI164
aI118
asS'BioID_0766'
p2923
(lp2924
I202
aI116
aI161
aI116
asS'BioID_0765'
p2925
(lp2926
I207
aI118
aI166
aI117
asS'BioID_0940'
p2927
(lp2928
I239
aI117
aI182
aI103
asS'BioID_0763'
p2929
(lp2930
I212
aI121
aI173
aI119
asS'BioID_0762'
p2931
(lp2932
I207
aI122
aI165
aI122
asS'BioID_0945'
p2933
(lp2934
I231
aI104
aI186
aI104
asS'BioID_0944'
p2935
(lp2936
I228
aI103
aI186
aI102
asS'BioID_1140'
p2937
(lp2938
I223
aI101
aI169
aI104
asS'BioID_1141'
p2939
(lp2940
I222
aI91
aI187
aI93
asS'BioID_0949'
p2941
(lp2942
I229
aI107
aI159
aI104
asS'BioID_1143'
p2943
(lp2944
I221
aI103
aI164
aI108
asS'BioID_1144'
p2945
(lp2946
I221
aI104
aI164
aI107
asS'BioID_1145'
p2947
(lp2948
I218
aI104
aI162
aI108
asS'BioID_1146'
p2949
(lp2950
I220
aI103
aI164
aI106
asS'BioID_0768'
p2951
(lp2952
I210
aI120
aI170
aI119
asS'BioID_0161'
p2953
(lp2954
I261
aI97
aI212
aI95
asS'BioID_0160'
p2955
(lp2956
I257
aI97
aI209
aI95
asS'BioID_0163'
p2957
(lp2958
I261
aI94
aI213
aI93
asS'BioID_0162'
p2959
(lp2960
I261
aI104
aI211
aI102
asS'BioID_0165'
p2961
(lp2962
I214
aI86
aI168
aI85
asS'BioID_0164'
p2963
(lp2964
I257
aI96
aI208
aI95
asS'BioID_0167'
p2965
(lp2966
I224
aI103
aI174
aI100
asS'BioID_0166'
p2967
(lp2968
I231
aI99
aI181
aI98
asS'BioID_0169'
p2969
(lp2970
I226
aI97
aI176
aI94
asS'BioID_0168'
p2971
(lp2972
I226
aI96
aI176
aI94
asS'BioID_0899'
p2973
(lp2974
I226
aI84
aI172
aI83
asS'BioID_0898'
p2975
(lp2976
I222
aI77
aI167
aI79
asS'BioID_0895'
p2977
(lp2978
I230
aI96
aI171
aI98
asS'BioID_0894'
p2979
(lp2980
I233
aI95
aI173
aI97
asS'BioID_0897'
p2981
(lp2982
I240
aI92
aI180
aI92
asS'BioID_0896'
p2983
(lp2984
I232
aI88
aI174
aI89
asS'BioID_0891'
p2985
(lp2986
I210
aI116
aI166
aI115
asS'BioID_0890'
p2987
(lp2988
I207
aI107
aI165
aI108
asS'BioID_0893'
p2989
(lp2990
I222
aI87
aI169
aI89
asS'BioID_0892'
p2991
(lp2992
I211
aI106
aI168
aI108
asS'BioID_0305'
p2993
(lp2994
I199
aI102
aI156
aI100
asS'BioID_0304'
p2995
(lp2996
I203
aI97
aI161
aI94
asS'BioID_0307'
p2997
(lp2998
I226
aI100
aI185
aI95
asS'BioID_0306'
p2999
(lp3000
I205
aI95
aI163
aI92
asS'BioID_0301'
p3001
(lp3002
I206
aI94
aI164
aI90
asS'BioID_0300'
p3003
(lp3004
I198
aI94
aI156
aI90
asS'BioID_0303'
p3005
(lp3006
I203
aI95
aI159
aI94
asS'BioID_0302'
p3007
(lp3008
I209
aI98
aI166
aI94
asS'BioID_0309'
p3009
(lp3010
I243
aI123
aI160
aI122
asS'BioID_0308'
p3011
(lp3012
I194
aI97
aI109
aI96
asS'BioID_0095'
p3013
(lp3014
I231
aI60
aI172
aI60
asS'BioID_0094'
p3015
(lp3016
I245
aI104
aI196
aI104
asS'BioID_0097'
p3017
(lp3018
I256
aI81
aI196
aI82
asS'BioID_0823'
p3019
(lp3020
I217
aI109
aI166
aI108
asS'BioID_0091'
p3021
(lp3022
I226
aI89
aI175
aI88
asS'BioID_0090'
p3023
(lp3024
I222
aI67
aI164
aI66
asS'BioID_0093'
p3025
(lp3026
I232
aI90
aI183
aI89
asS'BioID_0092'
p3027
(lp3028
I226
aI92
aI176
aI91
asS'BioID_1058'
p3029
(lp3030
I219
aI96
aI171
aI96
asS'BioID_0824'
p3031
(lp3032
I213
aI107
aI160
aI104
asS'BioID_0099'
p3033
(lp3034
I228
aI107
aI167
aI110
asS'BioID_0098'
p3035
(lp3036
I233
aI114
aI170
aI115
asS'BioID_0393'
p3037
(lp3038
I176
aI93
aI132
aI93
asS'BioID_0826'
p3039
(lp3040
I222
aI116
aI171
aI113
asS'BioID_0391'
p3041
(lp3042
I166
aI116
aI123
aI114
as.